---
triple:          'x86_64-apple-darwin'
binary-path:     letterBoxed
relocations:
  - { offsetInCU: 0x52, offset: 0x52, size: 0x8, addend: 0x0, symName: _words, symObjAddr: 0xCD2D8, symBinAddr: 0x10001D000, symSize: 0x0 }
  - { offsetInCU: 0x4AF3, offset: 0x4AF3, size: 0x8, addend: 0x0, symName: __ZNSt3__124__put_character_sequenceB8ue170006IcNS_11char_traitsIcEEEERNS_13basic_ostreamIT_T0_EES7_PKS4_m, symObjAddr: 0x53F0, symBinAddr: 0x100006740, symSize: 0x1F0 }
  - { offsetInCU: 0xB1FC, offset: 0xB1FC, size: 0x8, addend: 0x0, symName: __ZNSt3__17advanceB8ue170006IPcllvEEvRT_T0_, symObjAddr: 0xC800, symBinAddr: 0x10000DB50, symSize: 0x30 }
  - { offsetInCU: 0xB5BB, offset: 0xB5BB, size: 0x8, addend: 0x0, symName: __ZNSt3__113__fill_n_trueB8ue170006INS_6vectorIbNS_9allocatorIbEEEEEEvNS_14__bit_iteratorIT_Lb0EXLi0EEEENS6_9size_typeE, symObjAddr: 0xE9F0, symBinAddr: 0x10000FD40, symSize: 0x140 }
  - { offsetInCU: 0xB681, offset: 0xB681, size: 0x8, addend: 0x0, symName: __ZNSt3__114__fill_n_falseB8ue170006INS_6vectorIbNS_9allocatorIbEEEEEEvNS_14__bit_iteratorIT_Lb0EXLi0EEEENS6_9size_typeE, symObjAddr: 0xEB60, symBinAddr: 0x10000FEB0, symSize: 0x140 }
  - { offsetInCU: 0x15EBB, offset: 0x15EBB, size: 0x8, addend: 0x0, symName: __ZNSt3__1lsB8ue170006INS_11char_traitsIcEEEERNS_13basic_ostreamIcT_EES6_PKc, symObjAddr: 0x3B0, symBinAddr: 0x100001700, symSize: 0x40 }
  - { offsetInCU: 0x15F01, offset: 0x15F01, size: 0x8, addend: 0x0, symName: __ZNSt3__14endlB8ue170006IcNS_11char_traitsIcEEEERNS_13basic_ostreamIT_T0_EES7_, symObjAddr: 0x410, symBinAddr: 0x100001760, symSize: 0x50 }
  - { offsetInCU: 0x15F41, offset: 0x15F41, size: 0x8, addend: 0x0, symName: __ZNSt3__17getlineB8ue170006IcNS_11char_traitsIcEENS_9allocatorIcEEEERNS_13basic_istreamIT_T0_EES9_RNS_12basic_stringIS6_S7_T1_EE, symObjAddr: 0x480, symBinAddr: 0x1000017D0, symSize: 0x50 }
  - { offsetInCU: 0x15FA4, offset: 0x15FA4, size: 0x8, addend: 0x0, symName: __ZNSt3__1neB8ue170006IPKNS_12basic_stringIcNS_11char_traitsIcEENS_9allocatorIcEEEEEEbRKNS_11__wrap_iterIT_EESD_, symObjAddr: 0x770, symBinAddr: 0x100001AC0, symSize: 0x30 }
  - { offsetInCU: 0x15FE7, offset: 0x15FE7, size: 0x8, addend: 0x0, symName: __ZNSt3__1eqB8ue170006INS_9allocatorIcEEEEbRKNS_12basic_stringIcNS_11char_traitsIcEET_EES9_, symObjAddr: 0x7C0, symBinAddr: 0x100001B10, symSize: 0x110 }
  - { offsetInCU: 0x1605A, offset: 0x1605A, size: 0x8, addend: 0x0, symName: __ZNSt3__1neB8ue170006IPKcEEbRKNS_11__wrap_iterIT_EES7_, symObjAddr: 0xA80, symBinAddr: 0x100001DD0, symSize: 0x30 }
  - { offsetInCU: 0x1609D, offset: 0x1609D, size: 0x8, addend: 0x0, symName: __ZNSt3__1eqB8ue170006IPKcEEbRKNS_11__wrap_iterIT_EES7_, symObjAddr: 0xAD0, symBinAddr: 0x100001E20, symSize: 0x40 }
  - { offsetInCU: 0x160E0, offset: 0x160E0, size: 0x8, addend: 0x0, symName: __ZNSt3__14findB8ue170006INS_11__wrap_iterIPKcEEcEET_S5_S5_RKT0_, symObjAddr: 0xB10, symBinAddr: 0x100001E60, symSize: 0x70 }
  - { offsetInCU: 0x16148, offset: 0x16148, size: 0x8, addend: 0x0, symName: __ZNSt3__1neB8ue170006ERKNS_14__bit_iteratorINS_6vectorIbNS_9allocatorIbEEEELb1ELm0EEES7_, symObjAddr: 0xDD0, symBinAddr: 0x100002120, symSize: 0x30 }
  - { offsetInCU: 0x16185, offset: 0x16185, size: 0x8, addend: 0x0, symName: __ZNSt3__1lsB8ue170006IcNS_11char_traitsIcEENS_9allocatorIcEEEERNS_13basic_ostreamIT_T0_EES9_RKNS_12basic_stringIS6_S7_T1_EE, symObjAddr: 0x1270, symBinAddr: 0x1000025C0, symSize: 0x50 }
  - { offsetInCU: 0x161DD, offset: 0x161DD, size: 0x8, addend: 0x0, symName: __ZNSt3__1neB8ue170006IPiEEbRKNS_11__wrap_iterIT_EES6_, symObjAddr: 0x1840, symBinAddr: 0x100002B90, symSize: 0x30 }
  - { offsetInCU: 0x16220, offset: 0x16220, size: 0x8, addend: 0x0, symName: __ZNSt3__1rsB8ue170006IcNS_11char_traitsIcEENS_9allocatorIcEEEERNS_13basic_istreamIT_T0_EES9_RNS_12basic_stringIS6_S7_T1_EE, symObjAddr: 0x1E70, symBinAddr: 0x1000031C0, symSize: 0x2E0 }
  - { offsetInCU: 0x162EF, offset: 0x162EF, size: 0x8, addend: 0x0, symName: __ZNSt3__1neB8ue170006IPNS_6vectorI4WurdNS_9allocatorIS2_EEEEEEbRKNS_11__wrap_iterIT_EESB_, symObjAddr: 0x2D40, symBinAddr: 0x100004090, symSize: 0x30 }
  - { offsetInCU: 0x16332, offset: 0x16332, size: 0x8, addend: 0x0, symName: __ZNSt3__1neB8ue170006IPK4WurdEEbRKNS_11__wrap_iterIT_EES8_, symObjAddr: 0x30A0, symBinAddr: 0x1000043F0, symSize: 0x30 }
  - { offsetInCU: 0x169F2, offset: 0x169F2, size: 0x8, addend: 0x0, symName: __ZNSt3__1rsB8ue170006IcNS_11char_traitsIcEEEERNS_13basic_istreamIT_T0_EES7_RS4_, symObjAddr: 0x5120, symBinAddr: 0x100006470, symSize: 0x170 }
  - { offsetInCU: 0x16A74, offset: 0x16A74, size: 0x8, addend: 0x0, symName: __ZNSt3__116__pad_and_outputB8ue170006IcNS_11char_traitsIcEEEENS_19ostreambuf_iteratorIT_T0_EES6_PKS4_S8_S8_RNS_8ios_baseES4_, symObjAddr: 0x5630, symBinAddr: 0x100006980, symSize: 0x220 }
  - { offsetInCU: 0x16B44, offset: 0x16B44, size: 0x8, addend: 0x0, symName: __ZNSt3__19use_facetB8ue170006INS_5ctypeIcEEEERKT_RKNS_6localeE, symObjAddr: 0x5C80, symBinAddr: 0x100006FD0, symSize: 0x30 }
  - { offsetInCU: 0x16F22, offset: 0x16F22, size: 0x8, addend: 0x0, symName: __ZNSt3__112__to_addressB8ue170006IKcEEPT_S3_, symObjAddr: 0x5D10, symBinAddr: 0x100007060, symSize: 0x10 }
  - { offsetInCU: 0x16F57, offset: 0x16F57, size: 0x8, addend: 0x0, symName: __ZNSt3__130__libcpp_is_constant_evaluatedB8ue170006Ev, symObjAddr: 0x5E20, symBinAddr: 0x100007170, symSize: 0x10 }
  - { offsetInCU: 0x16FB2, offset: 0x16FB2, size: 0x8, addend: 0x0, symName: __ZNSt3__118__constexpr_strlenB8ue170006EPKc, symObjAddr: 0x5EB0, symBinAddr: 0x100007200, symSize: 0x20 }
  - { offsetInCU: 0x16FDE, offset: 0x16FDE, size: 0x8, addend: 0x0, symName: __ZNSt3__117__libcpp_allocateB8ue170006Emm, symObjAddr: 0x63D0, symBinAddr: 0x100007720, symSize: 0x20 }
  - { offsetInCU: 0x1701B, offset: 0x1701B, size: 0x8, addend: 0x0, symName: __ZNSt3__121__libcpp_operator_newB8ue170006IJmEEEPvDpT_, symObjAddr: 0x6410, symBinAddr: 0x100007760, symSize: 0x20 }
  - { offsetInCU: 0x17054, offset: 0x17054, size: 0x8, addend: 0x0, symName: __ZNSt3__17getlineB8ue170006IcNS_11char_traitsIcEENS_9allocatorIcEEEERNS_13basic_istreamIT_T0_EES9_RNS_12basic_stringIS6_S7_T1_EES6_, symObjAddr: 0x6460, symBinAddr: 0x1000077B0, symSize: 0x220 }
  - { offsetInCU: 0x17145, offset: 0x17145, size: 0x8, addend: 0x0, symName: __ZNSt3__112__to_addressB8ue170006INS_12basic_stringIcNS_11char_traitsIcEENS_9allocatorIcEEEEEEPT_S8_, symObjAddr: 0x6CD0, symBinAddr: 0x100008020, symSize: 0x10 }
  - { offsetInCU: 0x1717A, offset: 0x1717A, size: 0x8, addend: 0x0, symName: __ZNSt3__13maxB8ue170006ImEERKT_S3_S3_, symObjAddr: 0x70B0, symBinAddr: 0x100008400, symSize: 0x30 }
  - { offsetInCU: 0x171BD, offset: 0x171BD, size: 0x8, addend: 0x0, symName: __ZNSt3__13minB8ue170006ImEERKT_S3_S3_, symObjAddr: 0x70E0, symBinAddr: 0x100008430, symSize: 0x30 }
  - { offsetInCU: 0x17401, offset: 0x17401, size: 0x8, addend: 0x0, symName: __ZNSt3__13minB8ue170006ImNS_6__lessIvvEEEERKT_S5_S5_T0_, symObjAddr: 0x7160, symBinAddr: 0x1000084B0, symSize: 0x50 }
  - { offsetInCU: 0x174A0, offset: 0x174A0, size: 0x8, addend: 0x0, symName: __ZNSt3__120__throw_length_errorB8ue170006EPKc, symObjAddr: 0x7240, symBinAddr: 0x100008590, symSize: 0x70 }
  - { offsetInCU: 0x174CA, offset: 0x174CA, size: 0x8, addend: 0x0, symName: __ZNSt3__13maxB8ue170006ImNS_6__lessIvvEEEERKT_S5_S5_T0_, symObjAddr: 0x7370, symBinAddr: 0x1000086C0, symSize: 0x50 }
  - { offsetInCU: 0x17524, offset: 0x17524, size: 0x8, addend: 0x0, symName: __ZNSt3__119__allocate_at_leastB8ue170006INS_9allocatorINS_12basic_stringIcNS_11char_traitsIcEENS1_IcEEEEEEEENS_19__allocation_resultINS_16allocator_traitsIT_E7pointerEEERSA_m, symObjAddr: 0x74B0, symBinAddr: 0x100008800, symSize: 0x40 }
  - { offsetInCU: 0x17567, offset: 0x17567, size: 0x8, addend: 0x0, symName: __ZNSt3__142__uninitialized_allocator_move_if_noexceptB8ue170006INS_9allocatorINS_12basic_stringIcNS_11char_traitsIcEENS1_IcEEEEEENS_16reverse_iteratorIPS6_EESA_SA_EET2_RT_T0_T1_SB_, symObjAddr: 0x7740, symBinAddr: 0x100008A90, symSize: 0x190 }
  - { offsetInCU: 0x17606, offset: 0x17606, size: 0x8, addend: 0x0, symName: __ZNSt3__14swapB8ue170006IPNS_12basic_stringIcNS_11char_traitsIcEENS_9allocatorIcEEEEEEvRT_S9_, symObjAddr: 0x7920, symBinAddr: 0x100008C70, symSize: 0x40 }
  - { offsetInCU: 0x17657, offset: 0x17657, size: 0x8, addend: 0x0, symName: __ZNSt3__122__make_exception_guardB8ue170006INS_29_AllocatorDestroyRangeReverseINS_9allocatorINS_12basic_stringIcNS_11char_traitsIcEENS2_IcEEEEEENS_16reverse_iteratorIPS7_EEEEEENS_28__exception_guard_exceptionsIT_EESE_, symObjAddr: 0x7A40, symBinAddr: 0x100008D90, symSize: 0x60 }
  - { offsetInCU: 0x1768C, offset: 0x1768C, size: 0x8, addend: 0x0, symName: __ZNSt3__1neB8ue170006IPNS_12basic_stringIcNS_11char_traitsIcEENS_9allocatorIcEEEES7_EEbRKNS_16reverse_iteratorIT_EERKNS8_IT0_EE, symObjAddr: 0x7AE0, symBinAddr: 0x100008E30, symSize: 0x40 }
  - { offsetInCU: 0x176D8, offset: 0x176D8, size: 0x8, addend: 0x0, symName: __ZNSt3__112__to_addressB8ue170006INS_16reverse_iteratorIPNS_12basic_stringIcNS_11char_traitsIcEENS_9allocatorIcEEEEEEvEEu7__decayIDTclsr19__to_address_helperIT_EE6__callclsr3stdE7declvalIRKSA_EEEEESC_, symObjAddr: 0x7B20, symBinAddr: 0x100008E70, symSize: 0x20 }
  - { offsetInCU: 0x17737, offset: 0x17737, size: 0x8, addend: 0x0, symName: __ZNSt3__119__allocator_destroyB8ue170006INS_9allocatorINS_12basic_stringIcNS_11char_traitsIcEENS1_IcEEEEEENS_16reverse_iteratorINS8_IPS6_EEEESB_EEvRT_T0_T1_, symObjAddr: 0x7E10, symBinAddr: 0x100009160, symSize: 0x70 }
  - { offsetInCU: 0x1779A, offset: 0x1779A, size: 0x8, addend: 0x0, symName: __ZNSt3__1neB8ue170006INS_16reverse_iteratorIPNS_12basic_stringIcNS_11char_traitsIcEENS_9allocatorIcEEEEEES9_EEbRKNS1_IT_EERKNS1_IT0_EE, symObjAddr: 0x7EB0, symBinAddr: 0x100009200, symSize: 0x50 }
  - { offsetInCU: 0x177E6, offset: 0x177E6, size: 0x8, addend: 0x0, symName: __ZNSt3__112__to_addressB8ue170006INS_16reverse_iteratorINS1_IPNS_12basic_stringIcNS_11char_traitsIcEENS_9allocatorIcEEEEEEEEvEEu7__decayIDTclsr19__to_address_helperIT_EE6__callclsr3stdE7declvalIRKSB_EEEEESD_, symObjAddr: 0x7F30, symBinAddr: 0x100009280, symSize: 0x20 }
  - { offsetInCU: 0x17845, offset: 0x17845, size: 0x8, addend: 0x0, symName: __ZNSt3__119__libcpp_deallocateB8ue170006EPvmm, symObjAddr: 0x8320, symBinAddr: 0x100009670, symSize: 0x30 }
  - { offsetInCU: 0x1788D, offset: 0x1788D, size: 0x8, addend: 0x0, symName: __ZNSt3__127__do_deallocate_handle_sizeB8ue170006IJEEEvPvmDpT_, symObjAddr: 0x8350, symBinAddr: 0x1000096A0, symSize: 0x20 }
  - { offsetInCU: 0x178CB, offset: 0x178CB, size: 0x8, addend: 0x0, symName: __ZNSt3__124__libcpp_operator_deleteB8ue170006IJPvEEEvDpT_, symObjAddr: 0x8370, symBinAddr: 0x1000096C0, symSize: 0x20 }
  - { offsetInCU: 0x17900, offset: 0x17900, size: 0x8, addend: 0x0, symName: __ZNSt3__1eqB8ue170006IPKNS_12basic_stringIcNS_11char_traitsIcEENS_9allocatorIcEEEEEEbRKNS_11__wrap_iterIT_EESD_, symObjAddr: 0x8450, symBinAddr: 0x1000097A0, symSize: 0x40 }
  - { offsetInCU: 0x17943, offset: 0x17943, size: 0x8, addend: 0x0, symName: __ZNSt3__113__rewrap_iterB8ue170006INS_11__wrap_iterIPKcEES3_NS_18__unwrap_iter_implIS4_Lb1EEEEET_S7_T0_, symObjAddr: 0x85C0, symBinAddr: 0x100009910, symSize: 0x60 }
  - { offsetInCU: 0x17998, offset: 0x17998, size: 0x8, addend: 0x0, symName: __ZNSt3__111__find_implB8ue170006IKccNS_10__identityELi0EEEPT_S4_S4_RKT0_RT1_, symObjAddr: 0x8620, symBinAddr: 0x100009970, symSize: 0x70 }
  - { offsetInCU: 0x17A1F, offset: 0x17A1F, size: 0x8, addend: 0x0, symName: __ZNSt3__113__unwrap_iterB8ue170006INS_11__wrap_iterIPKcEENS_18__unwrap_iter_implIS4_Lb1EEELi0EEEDTclsrT0_8__unwrapclsr3stdE7declvalIT_EEEES8_, symObjAddr: 0x8690, symBinAddr: 0x1000099E0, symSize: 0x30 }
  - { offsetInCU: 0x17AB6, offset: 0x17AB6, size: 0x8, addend: 0x0, symName: __ZNSt3__112__to_addressB8ue170006INS_11__wrap_iterIPKcEEvEEu7__decayIDTclsr19__to_address_helperIT_EE6__callclsr3stdE7declvalIRKS5_EEEEES7_, symObjAddr: 0x8740, symBinAddr: 0x100009A90, symSize: 0x20 }
  - { offsetInCU: 0x17B53, offset: 0x17B53, size: 0x8, addend: 0x0, symName: __ZNSt3__118__constexpr_memchrB8ue170006IKccEEPT_S3_T0_m, symObjAddr: 0x8800, symBinAddr: 0x100009B50, symSize: 0xB0 }
  - { offsetInCU: 0x17BC9, offset: 0x17BC9, size: 0x8, addend: 0x0, symName: __ZNSt3__1eqB8ue170006ERKNS_14__bit_iteratorINS_6vectorIbNS_9allocatorIbEEEELb1ELm0EEES7_, symObjAddr: 0x89D0, symBinAddr: 0x100009D20, symSize: 0x50 }
  - { offsetInCU: 0x17C06, offset: 0x17C06, size: 0x8, addend: 0x0, symName: __ZNSt3__122__make_exception_guardB8ue170006INS_6vectorIiNS_9allocatorIiEEE16__destroy_vectorEEENS_28__exception_guard_exceptionsIT_EES7_, symObjAddr: 0x9070, symBinAddr: 0x10000A3C0, symSize: 0x40 }
  - { offsetInCU: 0x17C3B, offset: 0x17C3B, size: 0x8, addend: 0x0, symName: __ZNSt3__119__allocate_at_leastB8ue170006INS_9allocatorIiEEEENS_19__allocation_resultINS_16allocator_traitsIT_E7pointerEEERS5_m, symObjAddr: 0x9440, symBinAddr: 0x10000A790, symSize: 0x40 }
  - { offsetInCU: 0x17C7E, offset: 0x17C7E, size: 0x8, addend: 0x0, symName: __ZNSt3__112__to_addressB8ue170006IiEEPT_S2_, symObjAddr: 0x9750, symBinAddr: 0x10000AAA0, symSize: 0x10 }
  - { offsetInCU: 0x17CB3, offset: 0x17CB3, size: 0x8, addend: 0x0, symName: __ZNSt3__112__to_addressB8ue170006IeEEPT_S2_, symObjAddr: 0xA000, symBinAddr: 0x10000B350, symSize: 0x10 }
  - { offsetInCU: 0x17CE8, offset: 0x17CE8, size: 0x8, addend: 0x0, symName: __ZNSt3__119__allocate_at_leastB8ue170006INS_9allocatorIeEEEENS_19__allocation_resultINS_16allocator_traitsIT_E7pointerEEERS5_m, symObjAddr: 0xA510, symBinAddr: 0x10000B860, symSize: 0x40 }
  - { offsetInCU: 0x17D2B, offset: 0x17D2B, size: 0x8, addend: 0x0, symName: __ZNSt3__142__uninitialized_allocator_move_if_noexceptB8ue170006INS_9allocatorIeEENS_16reverse_iteratorIPeEES5_evEET1_RT_T0_S9_S6_, symObjAddr: 0xA6E0, symBinAddr: 0x10000BA30, symSize: 0x120 }
  - { offsetInCU: 0x17DA7, offset: 0x17DA7, size: 0x8, addend: 0x0, symName: __ZNSt3__14swapB8ue170006IPeEEvRT_S3_, symObjAddr: 0xA850, symBinAddr: 0x10000BBA0, symSize: 0x40 }
  - { offsetInCU: 0x17DF8, offset: 0x17DF8, size: 0x8, addend: 0x0, symName: __ZNSt3__1neB8ue170006IPeS1_EEbRKNS_16reverse_iteratorIT_EERKNS2_IT0_EE, symObjAddr: 0xA960, symBinAddr: 0x10000BCB0, symSize: 0x40 }
  - { offsetInCU: 0x17E69, offset: 0x17E69, size: 0x8, addend: 0x0, symName: __ZNSt3__114__construct_atB8ue170006IeJeEPeEEPT_S3_DpOT0_, symObjAddr: 0xA9A0, symBinAddr: 0x10000BCF0, symSize: 0x30 }
  - { offsetInCU: 0x17ED9, offset: 0x17ED9, size: 0x8, addend: 0x0, symName: __ZNSt3__112__to_addressB8ue170006INS_16reverse_iteratorIPeEEvEEu7__decayIDTclsr19__to_address_helperIT_EE6__callclsr3stdE7declvalIRKS4_EEEEES6_, symObjAddr: 0xA9D0, symBinAddr: 0x10000BD20, symSize: 0x20 }
  - { offsetInCU: 0x17F0F, offset: 0x17F0F, size: 0x8, addend: 0x0, symName: __ZNSt3__14moveB8ue170006INS_16reverse_iteratorIPeEES3_EET0_T_S5_S4_, symObjAddr: 0xAA40, symBinAddr: 0x10000BD90, symSize: 0x80 }
  - { offsetInCU: 0x17F92, offset: 0x17F92, size: 0x8, addend: 0x0, symName: __ZNSt3__16__moveB8ue170006INS_17_ClassicAlgPolicyENS_16reverse_iteratorIPeEES4_S4_EENS_4pairIT0_T2_EES6_T1_S7_, symObjAddr: 0xAB30, symBinAddr: 0x10000BE80, symSize: 0x90 }
  - { offsetInCU: 0x17FFE, offset: 0x17FFE, size: 0x8, addend: 0x0, symName: __ZNSt3__123__dispatch_copy_or_moveB8ue170006INS_17_ClassicAlgPolicyENS_11__move_loopIS1_EENS_14__move_trivialENS_16reverse_iteratorIPeEES7_S7_EENS_4pairIT2_T4_EES9_T3_SA_, symObjAddr: 0xABC0, symBinAddr: 0x10000BF10, symSize: 0x90 }
  - { offsetInCU: 0x1807C, offset: 0x1807C, size: 0x8, addend: 0x0, symName: __ZNSt3__121__unwrap_and_dispatchB8ue170006INS_10__overloadINS_11__move_loopINS_17_ClassicAlgPolicyEEENS_14__move_trivialEEENS_16reverse_iteratorIPeEES9_S9_Li0EEENS_4pairIT0_T2_EESB_T1_SC_, symObjAddr: 0xAC50, symBinAddr: 0x10000BFA0, symSize: 0x210 }
  - { offsetInCU: 0x1810B, offset: 0x1810B, size: 0x8, addend: 0x0, symName: __ZNSt3__114__unwrap_rangeB8ue170006INS_16reverse_iteratorIPeEES3_EENS_4pairIT0_S5_EET_S7_, symObjAddr: 0xAE60, symBinAddr: 0x10000C1B0, symSize: 0x90 }
  - { offsetInCU: 0x182DD, offset: 0x182DD, size: 0x8, addend: 0x0, symName: __ZNSt3__113__unwrap_iterB8ue170006INS_16reverse_iteratorIPeEENS_18__unwrap_iter_implIS3_Lb0EEELi0EEEDTclsrT0_8__unwrapclsr3stdE7declvalIT_EEEES7_, symObjAddr: 0xAF90, symBinAddr: 0x10000C2E0, symSize: 0x40 }
  - { offsetInCU: 0x18321, offset: 0x18321, size: 0x8, addend: 0x0, symName: __ZNSt3__19make_pairB8ue170006INS_16reverse_iteratorIPeEES3_EENS_4pairINS_18__unwrap_ref_decayIT_E4typeENS5_IT0_E4typeEEEOS6_OS9_, symObjAddr: 0xAFD0, symBinAddr: 0x10000C320, symSize: 0x30 }
  - { offsetInCU: 0x18370, offset: 0x18370, size: 0x8, addend: 0x0, symName: __ZNSt3__114__rewrap_rangeB8ue170006INS_16reverse_iteratorIPeEES3_EET_S4_T0_, symObjAddr: 0xB000, symBinAddr: 0x10000C350, symSize: 0x60 }
  - { offsetInCU: 0x183BC, offset: 0x183BC, size: 0x8, addend: 0x0, symName: __ZNSt3__113__rewrap_iterB8ue170006INS_16reverse_iteratorIPeEES3_NS_18__unwrap_iter_implIS3_Lb0EEEEET_S6_T0_, symObjAddr: 0xB060, symBinAddr: 0x10000C3B0, symSize: 0x80 }
  - { offsetInCU: 0x18529, offset: 0x18529, size: 0x8, addend: 0x0, symName: __ZNSt3__1eqB8ue170006IPiEEbRKNS_11__wrap_iterIT_EES6_, symObjAddr: 0xB440, symBinAddr: 0x10000C790, symSize: 0x40 }
  - { offsetInCU: 0x1856C, offset: 0x1856C, size: 0x8, addend: 0x0, symName: __ZNSt3__122__make_exception_guardB8ue170006INS_6vectorIcNS_9allocatorIcEEE16__destroy_vectorEEENS_28__exception_guard_exceptionsIT_EES7_, symObjAddr: 0xB8D0, symBinAddr: 0x10000CC20, symSize: 0x40 }
  - { offsetInCU: 0x185A1, offset: 0x185A1, size: 0x8, addend: 0x0, symName: __ZNSt3__119__allocate_at_leastB8ue170006INS_9allocatorIcEEEENS_19__allocation_resultINS_16allocator_traitsIT_E7pointerEEERS5_m, symObjAddr: 0xBC50, symBinAddr: 0x10000CFA0, symSize: 0x40 }
  - { offsetInCU: 0x185E4, offset: 0x185E4, size: 0x8, addend: 0x0, symName: __ZNSt3__112__to_addressB8ue170006IcEEPT_S2_, symObjAddr: 0xBE70, symBinAddr: 0x10000D1C0, symSize: 0x10 }
  - { offsetInCU: 0x18619, offset: 0x18619, size: 0x8, addend: 0x0, symName: __ZNSt3__18distanceB8ue170006IPcEENS_15iterator_traitsIT_E15difference_typeES3_S3_, symObjAddr: 0xC500, symBinAddr: 0x10000D850, symSize: 0x30 }
  - { offsetInCU: 0x1865C, offset: 0x1865C, size: 0x8, addend: 0x0, symName: __ZNSt3__14nextB8ue170006IPcEENS_9enable_ifIXsr29__has_input_iterator_categoryIT_EE5valueES3_E4typeES3_NS_15iterator_traitsIS3_E15difference_typeE, symObjAddr: 0xC530, symBinAddr: 0x10000D880, symSize: 0x30 }
  - { offsetInCU: 0x1869F, offset: 0x1869F, size: 0x8, addend: 0x0, symName: __ZNSt3__14copyB8ue170006IPcS1_EET0_T_S3_S2_, symObjAddr: 0xC560, symBinAddr: 0x10000D8B0, symSize: 0x40 }
  - { offsetInCU: 0x186F9, offset: 0x186F9, size: 0x8, addend: 0x0, symName: __ZNSt3__16__copyB8ue170006INS_17_ClassicAlgPolicyEPcS2_S2_EENS_4pairIT0_T2_EES4_T1_S5_, symObjAddr: 0xC640, symBinAddr: 0x10000D990, symSize: 0x40 }
  - { offsetInCU: 0x18765, offset: 0x18765, size: 0x8, addend: 0x0, symName: __ZNSt3__121__convert_to_integralB8ue170006El, symObjAddr: 0xC830, symBinAddr: 0x10000DB80, symSize: 0x10 }
  - { offsetInCU: 0x18791, offset: 0x18791, size: 0x8, addend: 0x0, symName: __ZNSt3__19__advanceB8ue170006IPcEEvRT_NS_15iterator_traitsIS2_E15difference_typeENS_26random_access_iterator_tagE, symObjAddr: 0xC840, symBinAddr: 0x10000DB90, symSize: 0x20 }
  - { offsetInCU: 0x187DA, offset: 0x187DA, size: 0x8, addend: 0x0, symName: __ZNSt3__130__uninitialized_allocator_copyB8ue170006INS_9allocatorIcEEPcS3_S3_EET2_RT_T0_T1_S4_, symObjAddr: 0xC860, symBinAddr: 0x10000DBB0, symSize: 0x80 }
  - { offsetInCU: 0x18877, offset: 0x18877, size: 0x8, addend: 0x0, symName: __ZNSt3__114__unwrap_rangeB8ue170006IPcS1_EENS_4pairIT0_S3_EET_S5_, symObjAddr: 0xC8E0, symBinAddr: 0x10000DC30, symSize: 0x50 }
  - { offsetInCU: 0x188C3, offset: 0x188C3, size: 0x8, addend: 0x0, symName: __ZNSt3__135__uninitialized_allocator_copy_implB8ue170006INS_9allocatorIcEEPcS3_S3_EET2_RT_T0_T1_S4_, symObjAddr: 0xC930, symBinAddr: 0x10000DC80, symSize: 0x110 }
  - { offsetInCU: 0x18961, offset: 0x18961, size: 0x8, addend: 0x0, symName: __ZNSt3__113__unwrap_iterB8ue170006IPcNS_18__unwrap_iter_implIS1_Lb1EEELi0EEEDTclsrT0_8__unwrapclsr3stdE7declvalIT_EEEES5_, symObjAddr: 0xCA40, symBinAddr: 0x10000DD90, symSize: 0x20 }
  - { offsetInCU: 0x189A5, offset: 0x189A5, size: 0x8, addend: 0x0, symName: __ZNSt3__113__rewrap_iterB8ue170006IPcS1_NS_18__unwrap_iter_implIS1_Lb1EEEEET_S4_T0_, symObjAddr: 0xCA60, symBinAddr: 0x10000DDB0, symSize: 0x50 }
  - { offsetInCU: 0x189FA, offset: 0x189FA, size: 0x8, addend: 0x0, symName: __ZNSt3__19make_pairB8ue170006IPcS1_EENS_4pairINS_18__unwrap_ref_decayIT_E4typeENS3_IT0_E4typeEEEOS4_OS7_, symObjAddr: 0xCAB0, symBinAddr: 0x10000DE00, symSize: 0x30 }
  - { offsetInCU: 0x18AF6, offset: 0x18AF6, size: 0x8, addend: 0x0, symName: __ZNSt3__122__make_exception_guardB8ue170006INS_29_AllocatorDestroyRangeReverseINS_9allocatorIcEEPcEEEENS_28__exception_guard_exceptionsIT_EES7_, symObjAddr: 0xCB40, symBinAddr: 0x10000DE90, symSize: 0x60 }
  - { offsetInCU: 0x18B2B, offset: 0x18B2B, size: 0x8, addend: 0x0, symName: __ZNSt3__119__allocator_destroyB8ue170006INS_9allocatorIcEENS_16reverse_iteratorIPcEES5_EEvRT_T0_T1_, symObjAddr: 0xCDB0, symBinAddr: 0x10000E100, symSize: 0x70 }
  - { offsetInCU: 0x18B8E, offset: 0x18B8E, size: 0x8, addend: 0x0, symName: __ZNSt3__1neB8ue170006IPcS1_EEbRKNS_16reverse_iteratorIT_EERKNS2_IT0_EE, symObjAddr: 0xCE50, symBinAddr: 0x10000E1A0, symSize: 0x40 }
  - { offsetInCU: 0x18BDA, offset: 0x18BDA, size: 0x8, addend: 0x0, symName: __ZNSt3__112__to_addressB8ue170006INS_16reverse_iteratorIPcEEvEEu7__decayIDTclsr19__to_address_helperIT_EE6__callclsr3stdE7declvalIRKS4_EEEEES6_, symObjAddr: 0xCE90, symBinAddr: 0x10000E1E0, symSize: 0x20 }
  - { offsetInCU: 0x18C8C, offset: 0x18C8C, size: 0x8, addend: 0x0, symName: __ZNSt3__123__dispatch_copy_or_moveB8ue170006INS_17_ClassicAlgPolicyENS_11__copy_loopIS1_EENS_14__copy_trivialEPcS5_S5_EENS_4pairIT2_T4_EES7_T3_S8_, symObjAddr: 0xD020, symBinAddr: 0x10000E370, symSize: 0x40 }
  - { offsetInCU: 0x18D0A, offset: 0x18D0A, size: 0x8, addend: 0x0, symName: __ZNSt3__121__unwrap_and_dispatchB8ue170006INS_10__overloadINS_11__copy_loopINS_17_ClassicAlgPolicyEEENS_14__copy_trivialEEEPcS7_S7_Li0EEENS_4pairIT0_T2_EES9_T1_SA_, symObjAddr: 0xD060, symBinAddr: 0x10000E3B0, symSize: 0xB0 }
  - { offsetInCU: 0x18DDF, offset: 0x18DDF, size: 0x8, addend: 0x0, symName: __ZNSt3__114__rewrap_rangeB8ue170006IPcS1_EET_S2_T0_, symObjAddr: 0xD150, symBinAddr: 0x10000E4A0, symSize: 0x30 }
  - { offsetInCU: 0x18E2B, offset: 0x18E2B, size: 0x8, addend: 0x0, symName: __ZNSt3__119__copy_trivial_implB8ue170006IccEENS_4pairIPT_PT0_EES3_S3_S5_, symObjAddr: 0xD180, symBinAddr: 0x10000E4D0, symSize: 0x70 }
  - { offsetInCU: 0x18E93, offset: 0x18E93, size: 0x8, addend: 0x0, symName: __ZNSt3__119__constexpr_memmoveB8ue170006IccLi0EEEPT_S2_PT0_NS_15__element_countE, symObjAddr: 0xD1F0, symBinAddr: 0x10000E540, symSize: 0x90 }
  - { offsetInCU: 0x18F01, offset: 0x18F01, size: 0x8, addend: 0x0, symName: __ZNSt3__19make_pairB8ue170006IRPcS1_EENS_4pairINS_18__unwrap_ref_decayIT_E4typeENS4_IT0_E4typeEEEOS5_OS8_, symObjAddr: 0xD280, symBinAddr: 0x10000E5D0, symSize: 0x30 }
  - { offsetInCU: 0x18F50, offset: 0x18F50, size: 0x8, addend: 0x0, symName: __ZNSt3__110__distanceB8ue170006IPcEENS_15iterator_traitsIT_E15difference_typeES3_S3_NS_26random_access_iterator_tagE, symObjAddr: 0xD380, symBinAddr: 0x10000E6D0, symSize: 0x20 }
  - { offsetInCU: 0x18F9D, offset: 0x18F9D, size: 0x8, addend: 0x0, symName: __ZNSt3__142__uninitialized_allocator_move_if_noexceptB8ue170006INS_9allocatorIcEENS_16reverse_iteratorIPcEES5_cvEET1_RT_T0_S9_S6_, symObjAddr: 0xD890, symBinAddr: 0x10000EBE0, symSize: 0x120 }
  - { offsetInCU: 0x19019, offset: 0x19019, size: 0x8, addend: 0x0, symName: __ZNSt3__14swapB8ue170006IPcEEvRT_S3_, symObjAddr: 0xD9B0, symBinAddr: 0x10000ED00, symSize: 0x40 }
  - { offsetInCU: 0x1908F, offset: 0x1908F, size: 0x8, addend: 0x0, symName: __ZNSt3__114__construct_atB8ue170006IcJcEPcEEPT_S3_DpOT0_, symObjAddr: 0xD9F0, symBinAddr: 0x10000ED40, symSize: 0x30 }
  - { offsetInCU: 0x190FF, offset: 0x190FF, size: 0x8, addend: 0x0, symName: __ZNSt3__14moveB8ue170006INS_16reverse_iteratorIPcEES3_EET0_T_S5_S4_, symObjAddr: 0xDA20, symBinAddr: 0x10000ED70, symSize: 0x80 }
  - { offsetInCU: 0x19159, offset: 0x19159, size: 0x8, addend: 0x0, symName: __ZNSt3__16__moveB8ue170006INS_17_ClassicAlgPolicyENS_16reverse_iteratorIPcEES4_S4_EENS_4pairIT0_T2_EES6_T1_S7_, symObjAddr: 0xDAA0, symBinAddr: 0x10000EDF0, symSize: 0x90 }
  - { offsetInCU: 0x191C5, offset: 0x191C5, size: 0x8, addend: 0x0, symName: __ZNSt3__123__dispatch_copy_or_moveB8ue170006INS_17_ClassicAlgPolicyENS_11__move_loopIS1_EENS_14__move_trivialENS_16reverse_iteratorIPcEES7_S7_EENS_4pairIT2_T4_EES9_T3_SA_, symObjAddr: 0xDB30, symBinAddr: 0x10000EE80, symSize: 0x90 }
  - { offsetInCU: 0x19243, offset: 0x19243, size: 0x8, addend: 0x0, symName: __ZNSt3__121__unwrap_and_dispatchB8ue170006INS_10__overloadINS_11__move_loopINS_17_ClassicAlgPolicyEEENS_14__move_trivialEEENS_16reverse_iteratorIPcEES9_S9_Li0EEENS_4pairIT0_T2_EESB_T1_SC_, symObjAddr: 0xDBC0, symBinAddr: 0x10000EF10, symSize: 0x210 }
  - { offsetInCU: 0x192D2, offset: 0x192D2, size: 0x8, addend: 0x0, symName: __ZNSt3__114__unwrap_rangeB8ue170006INS_16reverse_iteratorIPcEES3_EENS_4pairIT0_S5_EET_S7_, symObjAddr: 0xDDD0, symBinAddr: 0x10000F120, symSize: 0x90 }
  - { offsetInCU: 0x193CB, offset: 0x193CB, size: 0x8, addend: 0x0, symName: __ZNSt3__113__unwrap_iterB8ue170006INS_16reverse_iteratorIPcEENS_18__unwrap_iter_implIS3_Lb0EEELi0EEEDTclsrT0_8__unwrapclsr3stdE7declvalIT_EEEES7_, symObjAddr: 0xDF00, symBinAddr: 0x10000F250, symSize: 0x40 }
  - { offsetInCU: 0x1940F, offset: 0x1940F, size: 0x8, addend: 0x0, symName: __ZNSt3__19make_pairB8ue170006INS_16reverse_iteratorIPcEES3_EENS_4pairINS_18__unwrap_ref_decayIT_E4typeENS5_IT0_E4typeEEEOS6_OS9_, symObjAddr: 0xDF40, symBinAddr: 0x10000F290, symSize: 0x30 }
  - { offsetInCU: 0x1945E, offset: 0x1945E, size: 0x8, addend: 0x0, symName: __ZNSt3__114__rewrap_rangeB8ue170006INS_16reverse_iteratorIPcEES3_EET_S4_T0_, symObjAddr: 0xDF70, symBinAddr: 0x10000F2C0, symSize: 0x60 }
  - { offsetInCU: 0x194AA, offset: 0x194AA, size: 0x8, addend: 0x0, symName: __ZNSt3__113__rewrap_iterB8ue170006INS_16reverse_iteratorIPcEES3_NS_18__unwrap_iter_implIS3_Lb0EEEEET_S6_T0_, symObjAddr: 0xDFD0, symBinAddr: 0x10000F320, symSize: 0x80 }
  - { offsetInCU: 0x1956B, offset: 0x1956B, size: 0x8, addend: 0x0, symName: __ZNSt3__119__allocate_at_leastB8ue170006INS_9allocatorImEEEENS_19__allocation_resultINS_16allocator_traitsIT_E7pointerEEERS5_m, symObjAddr: 0xE6C0, symBinAddr: 0x10000FA10, symSize: 0x40 }
  - { offsetInCU: 0x195D3, offset: 0x195D3, size: 0x8, addend: 0x0, symName: __ZNSt3__114__construct_atB8ue170006ImJEPmEEPT_S3_DpOT0_, symObjAddr: 0xE760, symBinAddr: 0x10000FAB0, symSize: 0x20 }
  - { offsetInCU: 0x1962F, offset: 0x1962F, size: 0x8, addend: 0x0, symName: __ZNSt3__112__to_addressB8ue170006ImEEPT_S2_, symObjAddr: 0xE780, symBinAddr: 0x10000FAD0, symSize: 0x10 }
  - { offsetInCU: 0x19664, offset: 0x19664, size: 0x8, addend: 0x0, symName: __ZNSt3__16fill_nB8ue170006INS_6vectorIbNS_9allocatorIbEEEEEEvNS_14__bit_iteratorIT_Lb0EXLi0EEEENS6_9size_typeEb, symObjAddr: 0xE920, symBinAddr: 0x10000FC70, symSize: 0x80 }
  - { offsetInCU: 0x196B6, offset: 0x196B6, size: 0x8, addend: 0x0, symName: __ZNSt3__16fill_nB8ue170006IPmmmEET_S2_T0_RKT1_, symObjAddr: 0xECA0, symBinAddr: 0x10000FFF0, symSize: 0x40 }
  - { offsetInCU: 0x19719, offset: 0x19719, size: 0x8, addend: 0x0, symName: __ZNSt3__18__fill_nB8ue170006IPmmmEET_S2_T0_RKT1_, symObjAddr: 0xECE0, symBinAddr: 0x100010030, symSize: 0x50 }
  - { offsetInCU: 0x1977C, offset: 0x1977C, size: 0x8, addend: 0x0, symName: __ZNSt3__121__convert_to_integralB8ue170006Em, symObjAddr: 0xED30, symBinAddr: 0x100010080, symSize: 0x10 }
  - { offsetInCU: 0x197A8, offset: 0x197A8, size: 0x8, addend: 0x0, symName: __ZNSt3__16fill_nB8ue170006IPmmiEET_S2_T0_RKT1_, symObjAddr: 0xED70, symBinAddr: 0x1000100C0, symSize: 0x40 }
  - { offsetInCU: 0x1980B, offset: 0x1980B, size: 0x8, addend: 0x0, symName: __ZNSt3__18__fill_nB8ue170006IPmmiEET_S2_T0_RKT1_, symObjAddr: 0xEDB0, symBinAddr: 0x100010100, symSize: 0x50 }
  - { offsetInCU: 0x1986E, offset: 0x1986E, size: 0x8, addend: 0x0, symName: __ZNSt3__122__make_exception_guardB8ue170006INS_6vectorINS_12basic_stringIcNS_11char_traitsIcEENS_9allocatorIcEEEENS5_IS7_EEE16__destroy_vectorEEENS_28__exception_guard_exceptionsIT_EESC_, symObjAddr: 0xF2F0, symBinAddr: 0x100010640, symSize: 0x40 }
  - { offsetInCU: 0x198A3, offset: 0x198A3, size: 0x8, addend: 0x0, symName: __ZNSt3__130__uninitialized_allocator_copyB8ue170006INS_9allocatorINS_12basic_stringIcNS_11char_traitsIcEENS1_IcEEEEEEPS6_S8_S8_EET2_RT_T0_T1_S9_, symObjAddr: 0xF500, symBinAddr: 0x100010850, symSize: 0x80 }
  - { offsetInCU: 0x19940, offset: 0x19940, size: 0x8, addend: 0x0, symName: __ZNSt3__114__unwrap_rangeB8ue170006IPNS_12basic_stringIcNS_11char_traitsIcEENS_9allocatorIcEEEES7_EENS_4pairIT0_S9_EET_SB_, symObjAddr: 0xF580, symBinAddr: 0x1000108D0, symSize: 0x50 }
  - { offsetInCU: 0x1998C, offset: 0x1998C, size: 0x8, addend: 0x0, symName: __ZNSt3__135__uninitialized_allocator_copy_implB8ue170006INS_9allocatorINS_12basic_stringIcNS_11char_traitsIcEENS1_IcEEEEEEPS6_S8_S8_EET2_RT_T0_T1_S9_, symObjAddr: 0xF5D0, symBinAddr: 0x100010920, symSize: 0x110 }
  - { offsetInCU: 0x19A2A, offset: 0x19A2A, size: 0x8, addend: 0x0, symName: __ZNSt3__113__unwrap_iterB8ue170006IPNS_12basic_stringIcNS_11char_traitsIcEENS_9allocatorIcEEEENS_18__unwrap_iter_implIS7_Lb1EEELi0EEEDTclsrT0_8__unwrapclsr3stdE7declvalIT_EEEESB_, symObjAddr: 0xF6E0, symBinAddr: 0x100010A30, symSize: 0x20 }
  - { offsetInCU: 0x19A6E, offset: 0x19A6E, size: 0x8, addend: 0x0, symName: __ZNSt3__113__rewrap_iterB8ue170006IPNS_12basic_stringIcNS_11char_traitsIcEENS_9allocatorIcEEEES7_NS_18__unwrap_iter_implIS7_Lb1EEEEET_SA_T0_, symObjAddr: 0xF700, symBinAddr: 0x100010A50, symSize: 0x50 }
  - { offsetInCU: 0x19AC3, offset: 0x19AC3, size: 0x8, addend: 0x0, symName: __ZNSt3__19make_pairB8ue170006IPNS_12basic_stringIcNS_11char_traitsIcEENS_9allocatorIcEEEES7_EENS_4pairINS_18__unwrap_ref_decayIT_E4typeENS9_IT0_E4typeEEEOSA_OSD_, symObjAddr: 0xF750, symBinAddr: 0x100010AA0, symSize: 0x30 }
  - { offsetInCU: 0x19BBF, offset: 0x19BBF, size: 0x8, addend: 0x0, symName: __ZNSt3__122__make_exception_guardB8ue170006INS_29_AllocatorDestroyRangeReverseINS_9allocatorINS_12basic_stringIcNS_11char_traitsIcEENS2_IcEEEEEEPS7_EEEENS_28__exception_guard_exceptionsIT_EESC_, symObjAddr: 0xF7E0, symBinAddr: 0x100010B30, symSize: 0x60 }
  - { offsetInCU: 0x19BF4, offset: 0x19BF4, size: 0x8, addend: 0x0, symName: __ZNSt3__119__allocator_destroyB8ue170006INS_9allocatorINS_12basic_stringIcNS_11char_traitsIcEENS1_IcEEEEEENS_16reverse_iteratorIPS6_EESA_EEvRT_T0_T1_, symObjAddr: 0xFA60, symBinAddr: 0x100010DB0, symSize: 0x70 }
  - { offsetInCU: 0x19CAA, offset: 0x19CAA, size: 0x8, addend: 0x0, symName: __ZNSt3__112__to_addressB8ue170006IdEEPT_S2_, symObjAddr: 0xFFB0, symBinAddr: 0x100011300, symSize: 0x10 }
  - { offsetInCU: 0x19CDF, offset: 0x19CDF, size: 0x8, addend: 0x0, symName: __ZNSt3__119__allocate_at_leastB8ue170006INS_9allocatorIdEEEENS_19__allocation_resultINS_16allocator_traitsIT_E7pointerEEERS5_m, symObjAddr: 0x10820, symBinAddr: 0x100011B70, symSize: 0x40 }
  - { offsetInCU: 0x19D22, offset: 0x19D22, size: 0x8, addend: 0x0, symName: __ZNSt3__142__uninitialized_allocator_move_if_noexceptB8ue170006INS_9allocatorIdEENS_16reverse_iteratorIPdEES5_dvEET1_RT_T0_S9_S6_, symObjAddr: 0x109E0, symBinAddr: 0x100011D30, symSize: 0x120 }
  - { offsetInCU: 0x19D9E, offset: 0x19D9E, size: 0x8, addend: 0x0, symName: __ZNSt3__14swapB8ue170006IPdEEvRT_S3_, symObjAddr: 0x10B50, symBinAddr: 0x100011EA0, symSize: 0x40 }
  - { offsetInCU: 0x19DEF, offset: 0x19DEF, size: 0x8, addend: 0x0, symName: __ZNSt3__1neB8ue170006IPdS1_EEbRKNS_16reverse_iteratorIT_EERKNS2_IT0_EE, symObjAddr: 0x10C40, symBinAddr: 0x100011F90, symSize: 0x40 }
  - { offsetInCU: 0x19E60, offset: 0x19E60, size: 0x8, addend: 0x0, symName: __ZNSt3__114__construct_atB8ue170006IdJdEPdEEPT_S3_DpOT0_, symObjAddr: 0x10C80, symBinAddr: 0x100011FD0, symSize: 0x30 }
  - { offsetInCU: 0x19ED0, offset: 0x19ED0, size: 0x8, addend: 0x0, symName: __ZNSt3__112__to_addressB8ue170006INS_16reverse_iteratorIPdEEvEEu7__decayIDTclsr19__to_address_helperIT_EE6__callclsr3stdE7declvalIRKS4_EEEEES6_, symObjAddr: 0x10CB0, symBinAddr: 0x100012000, symSize: 0x20 }
  - { offsetInCU: 0x19F06, offset: 0x19F06, size: 0x8, addend: 0x0, symName: __ZNSt3__14moveB8ue170006INS_16reverse_iteratorIPdEES3_EET0_T_S5_S4_, symObjAddr: 0x10D20, symBinAddr: 0x100012070, symSize: 0x80 }
  - { offsetInCU: 0x19F89, offset: 0x19F89, size: 0x8, addend: 0x0, symName: __ZNSt3__16__moveB8ue170006INS_17_ClassicAlgPolicyENS_16reverse_iteratorIPdEES4_S4_EENS_4pairIT0_T2_EES6_T1_S7_, symObjAddr: 0x10E10, symBinAddr: 0x100012160, symSize: 0x90 }
  - { offsetInCU: 0x19FF5, offset: 0x19FF5, size: 0x8, addend: 0x0, symName: __ZNSt3__123__dispatch_copy_or_moveB8ue170006INS_17_ClassicAlgPolicyENS_11__move_loopIS1_EENS_14__move_trivialENS_16reverse_iteratorIPdEES7_S7_EENS_4pairIT2_T4_EES9_T3_SA_, symObjAddr: 0x10EA0, symBinAddr: 0x1000121F0, symSize: 0x90 }
  - { offsetInCU: 0x1A073, offset: 0x1A073, size: 0x8, addend: 0x0, symName: __ZNSt3__121__unwrap_and_dispatchB8ue170006INS_10__overloadINS_11__move_loopINS_17_ClassicAlgPolicyEEENS_14__move_trivialEEENS_16reverse_iteratorIPdEES9_S9_Li0EEENS_4pairIT0_T2_EESB_T1_SC_, symObjAddr: 0x10F30, symBinAddr: 0x100012280, symSize: 0x210 }
  - { offsetInCU: 0x1A102, offset: 0x1A102, size: 0x8, addend: 0x0, symName: __ZNSt3__114__unwrap_rangeB8ue170006INS_16reverse_iteratorIPdEES3_EENS_4pairIT0_S5_EET_S7_, symObjAddr: 0x11140, symBinAddr: 0x100012490, symSize: 0x90 }
  - { offsetInCU: 0x1A1FB, offset: 0x1A1FB, size: 0x8, addend: 0x0, symName: __ZNSt3__113__unwrap_iterB8ue170006INS_16reverse_iteratorIPdEENS_18__unwrap_iter_implIS3_Lb0EEELi0EEEDTclsrT0_8__unwrapclsr3stdE7declvalIT_EEEES7_, symObjAddr: 0x11270, symBinAddr: 0x1000125C0, symSize: 0x40 }
  - { offsetInCU: 0x1A23F, offset: 0x1A23F, size: 0x8, addend: 0x0, symName: __ZNSt3__19make_pairB8ue170006INS_16reverse_iteratorIPdEES3_EENS_4pairINS_18__unwrap_ref_decayIT_E4typeENS5_IT0_E4typeEEEOS6_OS9_, symObjAddr: 0x112B0, symBinAddr: 0x100012600, symSize: 0x30 }
  - { offsetInCU: 0x1A28E, offset: 0x1A28E, size: 0x8, addend: 0x0, symName: __ZNSt3__114__rewrap_rangeB8ue170006INS_16reverse_iteratorIPdEES3_EET_S4_T0_, symObjAddr: 0x112E0, symBinAddr: 0x100012630, symSize: 0x60 }
  - { offsetInCU: 0x1A2DA, offset: 0x1A2DA, size: 0x8, addend: 0x0, symName: __ZNSt3__113__rewrap_iterB8ue170006INS_16reverse_iteratorIPdEES3_NS_18__unwrap_iter_implIS3_Lb0EEEEET_S6_T0_, symObjAddr: 0x11340, symBinAddr: 0x100012690, symSize: 0x80 }
  - { offsetInCU: 0x1A39B, offset: 0x1A39B, size: 0x8, addend: 0x0, symName: __ZNSt3__1eqB8ue170006IPNS_6vectorI4WurdNS_9allocatorIS2_EEEEEEbRKNS_11__wrap_iterIT_EESB_, symObjAddr: 0x11700, symBinAddr: 0x100012A50, symSize: 0x40 }
  - { offsetInCU: 0x1A3DE, offset: 0x1A3DE, size: 0x8, addend: 0x0, symName: __ZNSt3__112__to_addressB8ue170006I4WurdEEPT_S3_, symObjAddr: 0x11B90, symBinAddr: 0x100012EE0, symSize: 0x10 }
  - { offsetInCU: 0x1A413, offset: 0x1A413, size: 0x8, addend: 0x0, symName: __ZNSt3__1eqB8ue170006IPK4WurdEEbRKNS_11__wrap_iterIT_EES8_, symObjAddr: 0x11D70, symBinAddr: 0x1000130C0, symSize: 0x40 }
  - { offsetInCU: 0x1A456, offset: 0x1A456, size: 0x8, addend: 0x0, symName: __ZNSt3__119__allocate_at_leastB8ue170006INS_9allocatorI4WurdEEEENS_19__allocation_resultINS_16allocator_traitsIT_E7pointerEEERS6_m, symObjAddr: 0x124F0, symBinAddr: 0x100013840, symSize: 0x40 }
  - { offsetInCU: 0x1A499, offset: 0x1A499, size: 0x8, addend: 0x0, symName: __ZNSt3__142__uninitialized_allocator_move_if_noexceptB8ue170006INS_9allocatorI4WurdEENS_16reverse_iteratorIPS2_EES6_S6_EET2_RT_T0_T1_S7_, symObjAddr: 0x126B0, symBinAddr: 0x100013A00, symSize: 0x190 }
  - { offsetInCU: 0x1A538, offset: 0x1A538, size: 0x8, addend: 0x0, symName: __ZNSt3__14swapB8ue170006IP4WurdEEvRT_S4_, symObjAddr: 0x12890, symBinAddr: 0x100013BE0, symSize: 0x40 }
  - { offsetInCU: 0x1A589, offset: 0x1A589, size: 0x8, addend: 0x0, symName: __ZNSt3__122__make_exception_guardB8ue170006INS_29_AllocatorDestroyRangeReverseINS_9allocatorI4WurdEENS_16reverse_iteratorIPS3_EEEEEENS_28__exception_guard_exceptionsIT_EESA_, symObjAddr: 0x12980, symBinAddr: 0x100013CD0, symSize: 0x60 }
  - { offsetInCU: 0x1A5BE, offset: 0x1A5BE, size: 0x8, addend: 0x0, symName: __ZNSt3__1neB8ue170006IP4WurdS2_EEbRKNS_16reverse_iteratorIT_EERKNS3_IT0_EE, symObjAddr: 0x12A20, symBinAddr: 0x100013D70, symSize: 0x40 }
  - { offsetInCU: 0x1A60A, offset: 0x1A60A, size: 0x8, addend: 0x0, symName: __ZNSt3__112__to_addressB8ue170006INS_16reverse_iteratorIP4WurdEEvEEu7__decayIDTclsr19__to_address_helperIT_EE6__callclsr3stdE7declvalIRKS5_EEEEES7_, symObjAddr: 0x12A60, symBinAddr: 0x100013DB0, symSize: 0x20 }
  - { offsetInCU: 0x1A669, offset: 0x1A669, size: 0x8, addend: 0x0, symName: __ZNSt3__119__allocator_destroyB8ue170006INS_9allocatorI4WurdEENS_16reverse_iteratorINS4_IPS2_EEEES7_EEvRT_T0_T1_, symObjAddr: 0x12D50, symBinAddr: 0x1000140A0, symSize: 0x70 }
  - { offsetInCU: 0x1A6CC, offset: 0x1A6CC, size: 0x8, addend: 0x0, symName: __ZNSt3__1neB8ue170006INS_16reverse_iteratorIP4WurdEES4_EEbRKNS1_IT_EERKNS1_IT0_EE, symObjAddr: 0x12DF0, symBinAddr: 0x100014140, symSize: 0x50 }
  - { offsetInCU: 0x1A718, offset: 0x1A718, size: 0x8, addend: 0x0, symName: __ZNSt3__112__to_addressB8ue170006INS_16reverse_iteratorINS1_IP4WurdEEEEvEEu7__decayIDTclsr19__to_address_helperIT_EE6__callclsr3stdE7declvalIRKS6_EEEEES8_, symObjAddr: 0x12E40, symBinAddr: 0x100014190, symSize: 0x20 }
  - { offsetInCU: 0x1A777, offset: 0x1A777, size: 0x8, addend: 0x0, symName: __ZNSt3__116__constrain_hashB8ue170006Emm, symObjAddr: 0x13990, symBinAddr: 0x100014CE0, symSize: 0x80 }
  - { offsetInCU: 0x1A7B1, offset: 0x1A7B1, size: 0x8, addend: 0x0, symName: __ZNSt3__116__is_hash_power2B8ue170006Em, symObjAddr: 0x13C80, symBinAddr: 0x100014FD0, symSize: 0x40 }
  - { offsetInCU: 0x1A82E, offset: 0x1A82E, size: 0x8, addend: 0x0, symName: __ZNSt3__116__next_hash_pow2B8ue170006Em, symObjAddr: 0x147C0, symBinAddr: 0x100015B10, symSize: 0x60 }
  - { offsetInCU: 0x1A876, offset: 0x1A876, size: 0x8, addend: 0x0, symName: __ZNSt3__112__libcpp_clzB8ue170006Em, symObjAddr: 0x14B80, symBinAddr: 0x100015ED0, symSize: 0x20 }
  - { offsetInCU: 0x1A8A2, offset: 0x1A8A2, size: 0x8, addend: 0x0, symName: __ZNSt3__130__uninitialized_allocator_copyB8ue170006INS_9allocatorIiEEPiS3_S3_EET2_RT_T0_T1_S4_, symObjAddr: 0x158F0, symBinAddr: 0x100016C40, symSize: 0x80 }
  - { offsetInCU: 0x1A93F, offset: 0x1A93F, size: 0x8, addend: 0x0, symName: __ZNSt3__114__unwrap_rangeB8ue170006IPiS1_EENS_4pairIT0_S3_EET_S5_, symObjAddr: 0x15970, symBinAddr: 0x100016CC0, symSize: 0x50 }
  - { offsetInCU: 0x1A98B, offset: 0x1A98B, size: 0x8, addend: 0x0, symName: __ZNSt3__135__uninitialized_allocator_copy_implB8ue170006INS_9allocatorIiEEPiS3_S3_EET2_RT_T0_T1_S4_, symObjAddr: 0x159C0, symBinAddr: 0x100016D10, symSize: 0x110 }
  - { offsetInCU: 0x1AA29, offset: 0x1AA29, size: 0x8, addend: 0x0, symName: __ZNSt3__113__unwrap_iterB8ue170006IPiNS_18__unwrap_iter_implIS1_Lb1EEELi0EEEDTclsrT0_8__unwrapclsr3stdE7declvalIT_EEEES5_, symObjAddr: 0x15AD0, symBinAddr: 0x100016E20, symSize: 0x20 }
  - { offsetInCU: 0x1AA6D, offset: 0x1AA6D, size: 0x8, addend: 0x0, symName: __ZNSt3__113__rewrap_iterB8ue170006IPiS1_NS_18__unwrap_iter_implIS1_Lb1EEEEET_S4_T0_, symObjAddr: 0x15AF0, symBinAddr: 0x100016E40, symSize: 0x50 }
  - { offsetInCU: 0x1AAC2, offset: 0x1AAC2, size: 0x8, addend: 0x0, symName: __ZNSt3__19make_pairB8ue170006IPiS1_EENS_4pairINS_18__unwrap_ref_decayIT_E4typeENS3_IT0_E4typeEEEOS4_OS7_, symObjAddr: 0x15B40, symBinAddr: 0x100016E90, symSize: 0x30 }
  - { offsetInCU: 0x1ABBE, offset: 0x1ABBE, size: 0x8, addend: 0x0, symName: __ZNSt3__122__make_exception_guardB8ue170006INS_29_AllocatorDestroyRangeReverseINS_9allocatorIiEEPiEEEENS_28__exception_guard_exceptionsIT_EES7_, symObjAddr: 0x15BD0, symBinAddr: 0x100016F20, symSize: 0x60 }
  - { offsetInCU: 0x1ABF3, offset: 0x1ABF3, size: 0x8, addend: 0x0, symName: __ZNSt3__119__allocator_destroyB8ue170006INS_9allocatorIiEENS_16reverse_iteratorIPiEES5_EEvRT_T0_T1_, symObjAddr: 0x15E40, symBinAddr: 0x100017190, symSize: 0x70 }
  - { offsetInCU: 0x1AC56, offset: 0x1AC56, size: 0x8, addend: 0x0, symName: __ZNSt3__1neB8ue170006IPiS1_EEbRKNS_16reverse_iteratorIT_EERKNS2_IT0_EE, symObjAddr: 0x15EE0, symBinAddr: 0x100017230, symSize: 0x40 }
  - { offsetInCU: 0x1ACA2, offset: 0x1ACA2, size: 0x8, addend: 0x0, symName: __ZNSt3__112__to_addressB8ue170006INS_16reverse_iteratorIPiEEvEEu7__decayIDTclsr19__to_address_helperIT_EE6__callclsr3stdE7declvalIRKS4_EEEEES6_, symObjAddr: 0x15F20, symBinAddr: 0x100017270, symSize: 0x20 }
  - { offsetInCU: 0x1AD54, offset: 0x1AD54, size: 0x8, addend: 0x0, symName: __ZNSt3__122__make_exception_guardB8ue170006INS_6vectorINS1_I4WurdNS_9allocatorIS2_EEEENS3_IS5_EEE16__destroy_vectorEEENS_28__exception_guard_exceptionsIT_EESA_, symObjAddr: 0x163B0, symBinAddr: 0x100017700, symSize: 0x40 }
  - { offsetInCU: 0x1AD89, offset: 0x1AD89, size: 0x8, addend: 0x0, symName: __ZNSt3__119__allocate_at_leastB8ue170006INS_9allocatorINS_6vectorI4WurdNS1_IS3_EEEEEEEENS_19__allocation_resultINS_16allocator_traitsIT_E7pointerEEERS9_m, symObjAddr: 0x16780, symBinAddr: 0x100017AD0, symSize: 0x40 }
  - { offsetInCU: 0x1ADCC, offset: 0x1ADCC, size: 0x8, addend: 0x0, symName: __ZNSt3__112__to_addressB8ue170006INS_6vectorI4WurdNS_9allocatorIS2_EEEEEEPT_S7_, symObjAddr: 0x16A90, symBinAddr: 0x100017DE0, symSize: 0x10 }
  - { offsetInCU: 0x1AE01, offset: 0x1AE01, size: 0x8, addend: 0x0, symName: __ZNSt3__122__make_exception_guardB8ue170006INS_6vectorI4WurdNS_9allocatorIS2_EEE16__destroy_vectorEEENS_28__exception_guard_exceptionsIT_EES8_, symObjAddr: 0x17120, symBinAddr: 0x100018470, symSize: 0x40 }
  - { offsetInCU: 0x1AE36, offset: 0x1AE36, size: 0x8, addend: 0x0, symName: __ZNSt3__130__uninitialized_allocator_copyB8ue170006INS_9allocatorI4WurdEEPS2_S4_S4_EET2_RT_T0_T1_S5_, symObjAddr: 0x17330, symBinAddr: 0x100018680, symSize: 0x80 }
  - { offsetInCU: 0x1AED3, offset: 0x1AED3, size: 0x8, addend: 0x0, symName: __ZNSt3__114__unwrap_rangeB8ue170006IP4WurdS2_EENS_4pairIT0_S4_EET_S6_, symObjAddr: 0x173B0, symBinAddr: 0x100018700, symSize: 0x50 }
  - { offsetInCU: 0x1AF1F, offset: 0x1AF1F, size: 0x8, addend: 0x0, symName: __ZNSt3__135__uninitialized_allocator_copy_implB8ue170006INS_9allocatorI4WurdEEPS2_S4_S4_EET2_RT_T0_T1_S5_, symObjAddr: 0x17400, symBinAddr: 0x100018750, symSize: 0x110 }
  - { offsetInCU: 0x1AFBD, offset: 0x1AFBD, size: 0x8, addend: 0x0, symName: __ZNSt3__113__unwrap_iterB8ue170006IP4WurdNS_18__unwrap_iter_implIS2_Lb1EEELi0EEEDTclsrT0_8__unwrapclsr3stdE7declvalIT_EEEES6_, symObjAddr: 0x17510, symBinAddr: 0x100018860, symSize: 0x20 }
  - { offsetInCU: 0x1B001, offset: 0x1B001, size: 0x8, addend: 0x0, symName: __ZNSt3__113__rewrap_iterB8ue170006IP4WurdS2_NS_18__unwrap_iter_implIS2_Lb1EEEEET_S5_T0_, symObjAddr: 0x17530, symBinAddr: 0x100018880, symSize: 0x50 }
  - { offsetInCU: 0x1B056, offset: 0x1B056, size: 0x8, addend: 0x0, symName: __ZNSt3__19make_pairB8ue170006IP4WurdS2_EENS_4pairINS_18__unwrap_ref_decayIT_E4typeENS4_IT0_E4typeEEEOS5_OS8_, symObjAddr: 0x17580, symBinAddr: 0x1000188D0, symSize: 0x30 }
  - { offsetInCU: 0x1B152, offset: 0x1B152, size: 0x8, addend: 0x0, symName: __ZNSt3__122__make_exception_guardB8ue170006INS_29_AllocatorDestroyRangeReverseINS_9allocatorI4WurdEEPS3_EEEENS_28__exception_guard_exceptionsIT_EES8_, symObjAddr: 0x17610, symBinAddr: 0x100018960, symSize: 0x60 }
  - { offsetInCU: 0x1B187, offset: 0x1B187, size: 0x8, addend: 0x0, symName: __ZNSt3__119__allocator_destroyB8ue170006INS_9allocatorI4WurdEENS_16reverse_iteratorIPS2_EES6_EEvRT_T0_T1_, symObjAddr: 0x17890, symBinAddr: 0x100018BE0, symSize: 0x70 }
  - { offsetInCU: 0x1B23D, offset: 0x1B23D, size: 0x8, addend: 0x0, symName: __ZNSt3__122__make_exception_guardB8ue170006INS_6vectorIdNS_9allocatorIdEEE16__destroy_vectorEEENS_28__exception_guard_exceptionsIT_EES7_, symObjAddr: 0x17B90, symBinAddr: 0x100018EE0, symSize: 0x40 }
  - { offsetInCU: 0x1B272, offset: 0x1B272, size: 0x8, addend: 0x0, symName: __ZNSt3__130__uninitialized_allocator_copyB8ue170006INS_9allocatorIdEEPdS3_S3_EET2_RT_T0_T1_S4_, symObjAddr: 0x17DA0, symBinAddr: 0x1000190F0, symSize: 0x80 }
  - { offsetInCU: 0x1B30F, offset: 0x1B30F, size: 0x8, addend: 0x0, symName: __ZNSt3__114__unwrap_rangeB8ue170006IPdS1_EENS_4pairIT0_S3_EET_S5_, symObjAddr: 0x17E20, symBinAddr: 0x100019170, symSize: 0x50 }
  - { offsetInCU: 0x1B35B, offset: 0x1B35B, size: 0x8, addend: 0x0, symName: __ZNSt3__135__uninitialized_allocator_copy_implB8ue170006INS_9allocatorIdEEPdS3_S3_EET2_RT_T0_T1_S4_, symObjAddr: 0x17E70, symBinAddr: 0x1000191C0, symSize: 0x110 }
  - { offsetInCU: 0x1B3F9, offset: 0x1B3F9, size: 0x8, addend: 0x0, symName: __ZNSt3__113__unwrap_iterB8ue170006IPdNS_18__unwrap_iter_implIS1_Lb1EEELi0EEEDTclsrT0_8__unwrapclsr3stdE7declvalIT_EEEES5_, symObjAddr: 0x17F80, symBinAddr: 0x1000192D0, symSize: 0x20 }
  - { offsetInCU: 0x1B43D, offset: 0x1B43D, size: 0x8, addend: 0x0, symName: __ZNSt3__113__rewrap_iterB8ue170006IPdS1_NS_18__unwrap_iter_implIS1_Lb1EEEEET_S4_T0_, symObjAddr: 0x17FA0, symBinAddr: 0x1000192F0, symSize: 0x50 }
  - { offsetInCU: 0x1B492, offset: 0x1B492, size: 0x8, addend: 0x0, symName: __ZNSt3__19make_pairB8ue170006IPdS1_EENS_4pairINS_18__unwrap_ref_decayIT_E4typeENS3_IT0_E4typeEEEOS4_OS7_, symObjAddr: 0x17FF0, symBinAddr: 0x100019340, symSize: 0x30 }
  - { offsetInCU: 0x1B58E, offset: 0x1B58E, size: 0x8, addend: 0x0, symName: __ZNSt3__122__make_exception_guardB8ue170006INS_29_AllocatorDestroyRangeReverseINS_9allocatorIdEEPdEEEENS_28__exception_guard_exceptionsIT_EES7_, symObjAddr: 0x18080, symBinAddr: 0x1000193D0, symSize: 0x60 }
  - { offsetInCU: 0x1B5C3, offset: 0x1B5C3, size: 0x8, addend: 0x0, symName: __ZNSt3__119__allocator_destroyB8ue170006INS_9allocatorIdEENS_16reverse_iteratorIPdEES5_EEvRT_T0_T1_, symObjAddr: 0x18300, symBinAddr: 0x100019650, symSize: 0x70 }
  - { offsetInCU: 0x1B679, offset: 0x1B679, size: 0x8, addend: 0x0, symName: __ZNSt3__130__uninitialized_allocator_copyB8ue170006INS_9allocatorINS_6vectorI4WurdNS1_IS3_EEEEEEPS5_S7_S7_EET2_RT_T0_T1_S8_, symObjAddr: 0x186A0, symBinAddr: 0x1000199F0, symSize: 0x80 }
  - { offsetInCU: 0x1B716, offset: 0x1B716, size: 0x8, addend: 0x0, symName: __ZNSt3__114__unwrap_rangeB8ue170006IPNS_6vectorI4WurdNS_9allocatorIS2_EEEES6_EENS_4pairIT0_S8_EET_SA_, symObjAddr: 0x18720, symBinAddr: 0x100019A70, symSize: 0x50 }
  - { offsetInCU: 0x1B762, offset: 0x1B762, size: 0x8, addend: 0x0, symName: __ZNSt3__135__uninitialized_allocator_copy_implB8ue170006INS_9allocatorINS_6vectorI4WurdNS1_IS3_EEEEEEPS5_S7_S7_EET2_RT_T0_T1_S8_, symObjAddr: 0x18770, symBinAddr: 0x100019AC0, symSize: 0x110 }
  - { offsetInCU: 0x1B800, offset: 0x1B800, size: 0x8, addend: 0x0, symName: __ZNSt3__113__unwrap_iterB8ue170006IPNS_6vectorI4WurdNS_9allocatorIS2_EEEENS_18__unwrap_iter_implIS6_Lb1EEELi0EEEDTclsrT0_8__unwrapclsr3stdE7declvalIT_EEEESA_, symObjAddr: 0x18880, symBinAddr: 0x100019BD0, symSize: 0x20 }
  - { offsetInCU: 0x1B844, offset: 0x1B844, size: 0x8, addend: 0x0, symName: __ZNSt3__113__rewrap_iterB8ue170006IPNS_6vectorI4WurdNS_9allocatorIS2_EEEES6_NS_18__unwrap_iter_implIS6_Lb1EEEEET_S9_T0_, symObjAddr: 0x188A0, symBinAddr: 0x100019BF0, symSize: 0x50 }
  - { offsetInCU: 0x1B899, offset: 0x1B899, size: 0x8, addend: 0x0, symName: __ZNSt3__19make_pairB8ue170006IPNS_6vectorI4WurdNS_9allocatorIS2_EEEES6_EENS_4pairINS_18__unwrap_ref_decayIT_E4typeENS8_IT0_E4typeEEEOS9_OSC_, symObjAddr: 0x188F0, symBinAddr: 0x100019C40, symSize: 0x30 }
  - { offsetInCU: 0x1B995, offset: 0x1B995, size: 0x8, addend: 0x0, symName: __ZNSt3__122__make_exception_guardB8ue170006INS_29_AllocatorDestroyRangeReverseINS_9allocatorINS_6vectorI4WurdNS2_IS4_EEEEEEPS6_EEEENS_28__exception_guard_exceptionsIT_EESB_, symObjAddr: 0x18980, symBinAddr: 0x100019CD0, symSize: 0x60 }
  - { offsetInCU: 0x1B9CA, offset: 0x1B9CA, size: 0x8, addend: 0x0, symName: __ZNSt3__119__allocator_destroyB8ue170006INS_9allocatorINS_6vectorI4WurdNS1_IS3_EEEEEENS_16reverse_iteratorIPS5_EES9_EEvRT_T0_T1_, symObjAddr: 0x18C00, symBinAddr: 0x100019F50, symSize: 0x70 }
  - { offsetInCU: 0x1BA2D, offset: 0x1BA2D, size: 0x8, addend: 0x0, symName: __ZNSt3__1neB8ue170006IPNS_6vectorI4WurdNS_9allocatorIS2_EEEES6_EEbRKNS_16reverse_iteratorIT_EERKNS7_IT0_EE, symObjAddr: 0x18CA0, symBinAddr: 0x100019FF0, symSize: 0x40 }
  - { offsetInCU: 0x1BA79, offset: 0x1BA79, size: 0x8, addend: 0x0, symName: __ZNSt3__112__to_addressB8ue170006INS_16reverse_iteratorIPNS_6vectorI4WurdNS_9allocatorIS3_EEEEEEvEEu7__decayIDTclsr19__to_address_helperIT_EE6__callclsr3stdE7declvalIRKS9_EEEEESB_, symObjAddr: 0x18CE0, symBinAddr: 0x10001A030, symSize: 0x20 }
  - { offsetInCU: 0x1BF00, offset: 0x1BF00, size: 0x8, addend: 0x0, symName: __ZSt28__throw_bad_array_new_lengthB8ue170006v, symObjAddr: 0x6390, symBinAddr: 0x1000076E0, symSize: 0x40 }
  - { offsetInCU: 0x1C4A9, offset: 0x1C4A9, size: 0x8, addend: 0x0, symName: __ZNSt3__16vectorINS_12basic_stringIcNS_11char_traitsIcEENS_9allocatorIcEEEENS4_IS6_EEE26__swap_out_circular_bufferERNS_14__split_bufferIS6_RS7_EE, symObjAddr: 0x6EA0, symBinAddr: 0x1000081F0, symSize: 0x120 }
  - { offsetInCU: 0x1CA71, offset: 0x1CA71, size: 0x8, addend: 0x0, symName: __ZNSt3__16vectorIeNS_9allocatorIeEEE26__swap_out_circular_bufferERNS_14__split_bufferIeRS2_EE, symObjAddr: 0xA240, symBinAddr: 0x10000B590, symSize: 0x120 }
  - { offsetInCU: 0x1CB22, offset: 0x1CB22, size: 0x8, addend: 0x0, symName: __ZNSt3__16vectorIcNS_9allocatorIcEEE26__swap_out_circular_bufferERNS_14__split_bufferIcRS2_EE, symObjAddr: 0xD560, symBinAddr: 0x10000E8B0, symSize: 0x120 }
  - { offsetInCU: 0x1D180, offset: 0x1D180, size: 0x8, addend: 0x0, symName: __ZNSt3__16vectorIdNS_9allocatorIdEEE26__swap_out_circular_bufferERNS_14__split_bufferIdRS2_EE, symObjAddr: 0x104C0, symBinAddr: 0x100011810, symSize: 0x120 }
  - { offsetInCU: 0x1D1DC, offset: 0x1D1DC, size: 0x8, addend: 0x0, symName: __ZNSt3__16vectorI4WurdNS_9allocatorIS1_EEE26__swap_out_circular_bufferERNS_14__split_bufferIS1_RS3_EE, symObjAddr: 0x12190, symBinAddr: 0x1000134E0, symSize: 0x120 }
  - { offsetInCU: 0x1FB45, offset: 0x1FB45, size: 0x8, addend: 0x0, symName: __Z9loadWordsRNSt3__16vectorINS_12basic_stringIcNS_11char_traitsIcEENS_9allocatorIcEEEENS4_IS6_EEEE, symObjAddr: 0x0, symBinAddr: 0x100001350, symSize: 0x200 }
  - { offsetInCU: 0x1FC92, offset: 0x1FC92, size: 0x8, addend: 0x0, symName: __ZNSt3__114basic_ifstreamIcNS_11char_traitsIcEEEC1EPKcj, symObjAddr: 0x200, symBinAddr: 0x100001550, symSize: 0x180 }
  - { offsetInCU: 0x1FCDC, offset: 0x1FCDC, size: 0x8, addend: 0x0, symName: __ZNKSt3__114basic_ifstreamIcNS_11char_traitsIcEEE7is_openEv, symObjAddr: 0x380, symBinAddr: 0x1000016D0, symSize: 0x30 }
  - { offsetInCU: 0x1FD04, offset: 0x1FD04, size: 0x8, addend: 0x0, symName: __ZNSt3__113basic_ostreamIcNS_11char_traitsIcEEElsB8ue170006EPFRS3_S4_E, symObjAddr: 0x3F0, symBinAddr: 0x100001740, symSize: 0x20 }
  - { offsetInCU: 0x1FD38, offset: 0x1FD38, size: 0x8, addend: 0x0, symName: __ZNSt3__112basic_stringIcNS_11char_traitsIcEENS_9allocatorIcEEEC1B8ue170006Ev, symObjAddr: 0x460, symBinAddr: 0x1000017B0, symSize: 0x20 }
  - { offsetInCU: 0x1FD62, offset: 0x1FD62, size: 0x8, addend: 0x0, symName: __ZNKSt3__19basic_iosIcNS_11char_traitsIcEEEcvPvB8ue170006Ev, symObjAddr: 0x4D0, symBinAddr: 0x100001820, symSize: 0x50 }
  - { offsetInCU: 0x1FD88, offset: 0x1FD88, size: 0x8, addend: 0x0, symName: __ZNSt3__16vectorINS_12basic_stringIcNS_11char_traitsIcEENS_9allocatorIcEEEENS4_IS6_EEE9push_backB8ue170006ERKS6_, symObjAddr: 0x520, symBinAddr: 0x100001870, symSize: 0x60 }
  - { offsetInCU: 0x1FDBF, offset: 0x1FDBF, size: 0x8, addend: 0x0, symName: __ZNSt3__114basic_ifstreamIcNS_11char_traitsIcEEE5closeEv, symObjAddr: 0x580, symBinAddr: 0x1000018D0, symSize: 0x50 }
  - { offsetInCU: 0x1FDEC, offset: 0x1FDEC, size: 0x8, addend: 0x0, symName: __ZNSt3__114basic_ifstreamIcNS_11char_traitsIcEEED1Ev, symObjAddr: 0x5E0, symBinAddr: 0x100001930, symSize: 0x80 }
  - { offsetInCU: 0x1FE18, offset: 0x1FE18, size: 0x8, addend: 0x0, symName: __Z9isinWordsRKNSt3__112basic_stringIcNS_11char_traitsIcEENS_9allocatorIcEEEERKNS_6vectorIS5_NS3_IS5_EEEE, symObjAddr: 0x660, symBinAddr: 0x1000019B0, symSize: 0xB0 }
  - { offsetInCU: 0x1FEA4, offset: 0x1FEA4, size: 0x8, addend: 0x0, symName: __ZNKSt3__16vectorINS_12basic_stringIcNS_11char_traitsIcEENS_9allocatorIcEEEENS4_IS6_EEE5beginB8ue170006Ev, symObjAddr: 0x710, symBinAddr: 0x100001A60, symSize: 0x30 }
  - { offsetInCU: 0x1FECC, offset: 0x1FECC, size: 0x8, addend: 0x0, symName: __ZNKSt3__16vectorINS_12basic_stringIcNS_11char_traitsIcEENS_9allocatorIcEEEENS4_IS6_EEE3endB8ue170006Ev, symObjAddr: 0x740, symBinAddr: 0x100001A90, symSize: 0x30 }
  - { offsetInCU: 0x1FEF4, offset: 0x1FEF4, size: 0x8, addend: 0x0, symName: __ZNKSt3__111__wrap_iterIPKNS_12basic_stringIcNS_11char_traitsIcEENS_9allocatorIcEEEEEdeB8ue170006Ev, symObjAddr: 0x7A0, symBinAddr: 0x100001AF0, symSize: 0x20 }
  - { offsetInCU: 0x1FF1A, offset: 0x1FF1A, size: 0x8, addend: 0x0, symName: __ZNSt3__111__wrap_iterIPKNS_12basic_stringIcNS_11char_traitsIcEENS_9allocatorIcEEEEEppB8ue170006Ev, symObjAddr: 0x8D0, symBinAddr: 0x100001C20, symSize: 0x20 }
  - { offsetInCU: 0x1FF3F, offset: 0x1FF3F, size: 0x8, addend: 0x0, symName: __Z6isinQnRKNSt3__112basic_stringIcNS_11char_traitsIcEENS_9allocatorIcEEEERKNS_6vectorIcS4_EE, symObjAddr: 0x8F0, symBinAddr: 0x100001C40, symSize: 0xE0 }
  - { offsetInCU: 0x1FFCB, offset: 0x1FFCB, size: 0x8, addend: 0x0, symName: __ZNKSt3__112basic_stringIcNS_11char_traitsIcEENS_9allocatorIcEEE5beginB8ue170006Ev, symObjAddr: 0x9D0, symBinAddr: 0x100001D20, symSize: 0x60 }
  - { offsetInCU: 0x1FFF1, offset: 0x1FFF1, size: 0x8, addend: 0x0, symName: __ZNKSt3__112basic_stringIcNS_11char_traitsIcEENS_9allocatorIcEEE3endB8ue170006Ev, symObjAddr: 0xA30, symBinAddr: 0x100001D80, symSize: 0x50 }
  - { offsetInCU: 0x20017, offset: 0x20017, size: 0x8, addend: 0x0, symName: __ZNKSt3__111__wrap_iterIPKcEdeB8ue170006Ev, symObjAddr: 0xAB0, symBinAddr: 0x100001E00, symSize: 0x20 }
  - { offsetInCU: 0x2003D, offset: 0x2003D, size: 0x8, addend: 0x0, symName: __ZNKSt3__16vectorIcNS_9allocatorIcEEE5beginB8ue170006Ev, symObjAddr: 0xB80, symBinAddr: 0x100001ED0, symSize: 0x30 }
  - { offsetInCU: 0x20065, offset: 0x20065, size: 0x8, addend: 0x0, symName: __ZNKSt3__16vectorIcNS_9allocatorIcEEE3endB8ue170006Ev, symObjAddr: 0xBB0, symBinAddr: 0x100001F00, symSize: 0x30 }
  - { offsetInCU: 0x2008D, offset: 0x2008D, size: 0x8, addend: 0x0, symName: __ZNSt3__111__wrap_iterIPKcEppB8ue170006Ev, symObjAddr: 0xBE0, symBinAddr: 0x100001F30, symSize: 0x20 }
  - { offsetInCU: 0x200B2, offset: 0x200B2, size: 0x8, addend: 0x0, symName: __Z11isValidWordRKNSt3__112basic_stringIcNS_11char_traitsIcEENS_9allocatorIcEEEERKNS_6vectorIcS4_EERKNS8_IS5_NS3_IS5_EEEE, symObjAddr: 0xC00, symBinAddr: 0x100001F50, symSize: 0x80 }
  - { offsetInCU: 0x200FB, offset: 0x200FB, size: 0x8, addend: 0x0, symName: __ZNKSt3__112basic_stringIcNS_11char_traitsIcEENS_9allocatorIcEEE4sizeB8ue170006Ev, symObjAddr: 0xC80, symBinAddr: 0x100001FD0, symSize: 0x50 }
  - { offsetInCU: 0x20120, offset: 0x20120, size: 0x8, addend: 0x0, symName: __Z13gameConditionRKNSt3__16vectorIbNS_9allocatorIbEEEE, symObjAddr: 0xCD0, symBinAddr: 0x100002020, symSize: 0xA0 }
  - { offsetInCU: 0x2019F, offset: 0x2019F, size: 0x8, addend: 0x0, symName: __ZNKSt3__16vectorIbNS_9allocatorIbEEE5beginB8ue170006Ev, symObjAddr: 0xD70, symBinAddr: 0x1000020C0, symSize: 0x30 }
  - { offsetInCU: 0x201C5, offset: 0x201C5, size: 0x8, addend: 0x0, symName: __ZNKSt3__16vectorIbNS_9allocatorIbEEE3endB8ue170006Ev, symObjAddr: 0xDA0, symBinAddr: 0x1000020F0, symSize: 0x30 }
  - { offsetInCU: 0x201EB, offset: 0x201EB, size: 0x8, addend: 0x0, symName: __ZNKSt3__114__bit_iteratorINS_6vectorIbNS_9allocatorIbEEEELb1ELm0EEdeB8ue170006Ev, symObjAddr: 0xE00, symBinAddr: 0x100002150, symSize: 0x40 }
  - { offsetInCU: 0x20211, offset: 0x20211, size: 0x8, addend: 0x0, symName: __ZNKSt3__121__bit_const_referenceINS_6vectorIbNS_9allocatorIbEEEEEcvbB8ue170006Ev, symObjAddr: 0xE40, symBinAddr: 0x100002190, symSize: 0x30 }
  - { offsetInCU: 0x20237, offset: 0x20237, size: 0x8, addend: 0x0, symName: __ZNSt3__114__bit_iteratorINS_6vectorIbNS_9allocatorIbEEEELb1ELm0EEppB8ue170006Ev, symObjAddr: 0xE70, symBinAddr: 0x1000021C0, symSize: 0x50 }
  - { offsetInCU: 0x2025C, offset: 0x2025C, size: 0x8, addend: 0x0, symName: __Z12patOnTheBackv, symObjAddr: 0xEC0, symBinAddr: 0x100002210, symSize: 0x300 }
  - { offsetInCU: 0x20294, offset: 0x20294, size: 0x8, addend: 0x0, symName: __ZNSt3__16vectorINS_12basic_stringIcNS_11char_traitsIcEENS_9allocatorIcEEEENS4_IS6_EEEC1B8ue170006Ev, symObjAddr: 0x11C0, symBinAddr: 0x100002510, symSize: 0x20 }
  - { offsetInCU: 0x202BE, offset: 0x202BE, size: 0x8, addend: 0x0, symName: __ZNSt3__16vectorINS_12basic_stringIcNS_11char_traitsIcEENS_9allocatorIcEEEENS4_IS6_EEE9push_backB8ue170006EOS6_, symObjAddr: 0x11E0, symBinAddr: 0x100002530, symSize: 0x60 }
  - { offsetInCU: 0x202FA, offset: 0x202FA, size: 0x8, addend: 0x0, symName: __ZNSt3__112basic_stringIcNS_11char_traitsIcEENS_9allocatorIcEEEC1B8ue170006ILi0EEEPKc, symObjAddr: 0x1240, symBinAddr: 0x100002590, symSize: 0x30 }
  - { offsetInCU: 0x20339, offset: 0x20339, size: 0x8, addend: 0x0, symName: __ZNSt3__16vectorINS_12basic_stringIcNS_11char_traitsIcEENS_9allocatorIcEEEENS4_IS6_EEEixB8ue170006Em, symObjAddr: 0x12C0, symBinAddr: 0x100002610, symSize: 0x20 }
  - { offsetInCU: 0x20370, offset: 0x20370, size: 0x8, addend: 0x0, symName: __ZNSt3__16vectorINS_12basic_stringIcNS_11char_traitsIcEENS_9allocatorIcEEEENS4_IS6_EEED1B8ue170006Ev, symObjAddr: 0x12E0, symBinAddr: 0x100002630, symSize: 0x20 }
  - { offsetInCU: 0x20399, offset: 0x20399, size: 0x8, addend: 0x0, symName: __Z8finishedNSt3__16vectorINS_12basic_stringIcNS_11char_traitsIcEENS_9allocatorIcEEEENS4_IS6_EEEEi, symObjAddr: 0x1300, symBinAddr: 0x100002650, symSize: 0xA0 }
  - { offsetInCU: 0x203D1, offset: 0x203D1, size: 0x8, addend: 0x0, symName: __ZNKSt3__16vectorINS_12basic_stringIcNS_11char_traitsIcEENS_9allocatorIcEEEENS4_IS6_EEE4sizeB8ue170006Ev, symObjAddr: 0x13A0, symBinAddr: 0x1000026F0, symSize: 0x30 }
  - { offsetInCU: 0x203F6, offset: 0x203F6, size: 0x8, addend: 0x0, symName: __Z19individualFrequencyRKNSt3__16vectorINS_12basic_stringIcNS_11char_traitsIcEENS_9allocatorIcEEEENS4_IS6_EEEE, symObjAddr: 0x13D0, symBinAddr: 0x100002720, symSize: 0x280 }
  - { offsetInCU: 0x20565, offset: 0x20565, size: 0x8, addend: 0x0, symName: __ZNSt3__16vectorIiNS_9allocatorIiEEEC1EmRKi, symObjAddr: 0x1650, symBinAddr: 0x1000029A0, symSize: 0x30 }
  - { offsetInCU: 0x205AF, offset: 0x205AF, size: 0x8, addend: 0x0, symName: __ZNSt3__16vectorIiNS_9allocatorIiEEEixB8ue170006Em, symObjAddr: 0x1680, symBinAddr: 0x1000029D0, symSize: 0x20 }
  - { offsetInCU: 0x205E6, offset: 0x205E6, size: 0x8, addend: 0x0, symName: __ZNSt3__16vectorIeNS_9allocatorIeEEEC1B8ue170006Ev, symObjAddr: 0x16A0, symBinAddr: 0x1000029F0, symSize: 0x20 }
  - { offsetInCU: 0x20610, offset: 0x20610, size: 0x8, addend: 0x0, symName: __ZNSt3__16vectorIeNS_9allocatorIeEEE7reserveEm, symObjAddr: 0x16C0, symBinAddr: 0x100002A10, symSize: 0x100 }
  - { offsetInCU: 0x2066B, offset: 0x2066B, size: 0x8, addend: 0x0, symName: __ZNKSt3__16vectorIiNS_9allocatorIiEEE4sizeB8ue170006Ev, symObjAddr: 0x17C0, symBinAddr: 0x100002B10, symSize: 0x20 }
  - { offsetInCU: 0x20691, offset: 0x20691, size: 0x8, addend: 0x0, symName: __ZNSt3__16vectorIiNS_9allocatorIiEEE5beginB8ue170006Ev, symObjAddr: 0x17E0, symBinAddr: 0x100002B30, symSize: 0x30 }
  - { offsetInCU: 0x206B9, offset: 0x206B9, size: 0x8, addend: 0x0, symName: __ZNSt3__16vectorIiNS_9allocatorIiEEE3endB8ue170006Ev, symObjAddr: 0x1810, symBinAddr: 0x100002B60, symSize: 0x30 }
  - { offsetInCU: 0x206E1, offset: 0x206E1, size: 0x8, addend: 0x0, symName: __ZNKSt3__111__wrap_iterIPiEdeB8ue170006Ev, symObjAddr: 0x1870, symBinAddr: 0x100002BC0, symSize: 0x20 }
  - { offsetInCU: 0x20707, offset: 0x20707, size: 0x8, addend: 0x0, symName: __ZNSt3__16vectorIeNS_9allocatorIeEEE9push_backB8ue170006ERKe, symObjAddr: 0x1890, symBinAddr: 0x100002BE0, symSize: 0x60 }
  - { offsetInCU: 0x2073E, offset: 0x2073E, size: 0x8, addend: 0x0, symName: __ZNSt3__111__wrap_iterIPiEppB8ue170006Ev, symObjAddr: 0x18F0, symBinAddr: 0x100002C40, symSize: 0x20 }
  - { offsetInCU: 0x20764, offset: 0x20764, size: 0x8, addend: 0x0, symName: __ZNSt3__16vectorIeNS_9allocatorIeEEED1B8ue170006Ev, symObjAddr: 0x1910, symBinAddr: 0x100002C60, symSize: 0x20 }
  - { offsetInCU: 0x2078E, offset: 0x2078E, size: 0x8, addend: 0x0, symName: __ZNSt3__16vectorIiNS_9allocatorIiEEED1B8ue170006Ev, symObjAddr: 0x1930, symBinAddr: 0x100002C80, symSize: 0x20 }
  - { offsetInCU: 0x207B7, offset: 0x207B7, size: 0x8, addend: 0x0, symName: __Z12initializeQnRNSt3__16vectorIcNS_9allocatorIcEEEERiRKNS0_INS_12basic_stringIcNS_11char_traitsIcEES2_EENS1_IS9_EEEE, symObjAddr: 0x1950, symBinAddr: 0x100002CA0, symSize: 0xA0 }
  - { offsetInCU: 0x2080A, offset: 0x2080A, size: 0x8, addend: 0x0, symName: __ZNSt3__16vectorIcNS_9allocatorIcEEEC1EmRKc, symObjAddr: 0x19F0, symBinAddr: 0x100002D40, symSize: 0x30 }
  - { offsetInCU: 0x20854, offset: 0x20854, size: 0x8, addend: 0x0, symName: __ZNSt3__16vectorIcNS_9allocatorIcEEEaSB8ue170006ERKS3_, symObjAddr: 0x1A20, symBinAddr: 0x100002D70, symSize: 0x60 }
  - { offsetInCU: 0x2088B, offset: 0x2088B, size: 0x8, addend: 0x0, symName: __ZNSt3__16vectorIcNS_9allocatorIcEEED1B8ue170006Ev, symObjAddr: 0x1A80, symBinAddr: 0x100002DD0, symSize: 0x20 }
  - { offsetInCU: 0x208B4, offset: 0x208B4, size: 0x8, addend: 0x0, symName: __Z13loadAlphabetsRNSt3__16vectorIcNS_9allocatorIcEEEE, symObjAddr: 0x1AA0, symBinAddr: 0x100002DF0, symSize: 0x40 }
  - { offsetInCU: 0x208F9, offset: 0x208F9, size: 0x8, addend: 0x0, symName: __ZNSt3__16vectorIcNS_9allocatorIcEEE9push_backB8ue170006ERKc, symObjAddr: 0x1AE0, symBinAddr: 0x100002E30, symSize: 0x60 }
  - { offsetInCU: 0x2092F, offset: 0x2092F, size: 0x8, addend: 0x0, symName: __Z8gameplayNSt3__16vectorINS_12basic_stringIcNS_11char_traitsIcEENS_9allocatorIcEEEENS4_IS6_EEEE, symObjAddr: 0x1B40, symBinAddr: 0x100002E90, symSize: 0x2E0 }
  - { offsetInCU: 0x209B7, offset: 0x209B7, size: 0x8, addend: 0x0, symName: __ZNSt3__16vectorIbNS_9allocatorIbEEEC1EmRKb, symObjAddr: 0x1E20, symBinAddr: 0x100003170, symSize: 0x30 }
  - { offsetInCU: 0x20A01, offset: 0x20A01, size: 0x8, addend: 0x0, symName: __ZNSt3__16vectorIcNS_9allocatorIcEEEC1B8ue170006Ev, symObjAddr: 0x1E50, symBinAddr: 0x1000031A0, symSize: 0x20 }
  - { offsetInCU: 0x20A2B, offset: 0x20A2B, size: 0x8, addend: 0x0, symName: __ZNSt3__16vectorINS_12basic_stringIcNS_11char_traitsIcEENS_9allocatorIcEEEENS4_IS6_EEEC1ERKS8_, symObjAddr: 0x2150, symBinAddr: 0x1000034A0, symSize: 0x30 }
  - { offsetInCU: 0x20A66, offset: 0x20A66, size: 0x8, addend: 0x0, symName: __ZNSt3__16vectorIbNS_9allocatorIbEEED1B8ue170006Ev, symObjAddr: 0x2180, symBinAddr: 0x1000034D0, symSize: 0x20 }
  - { offsetInCU: 0x20A8F, offset: 0x20A8F, size: 0x8, addend: 0x0, symName: __Z7printerNSt3__16vectorINS_12basic_stringIcNS_11char_traitsIcEENS_9allocatorIcEEEENS4_IS6_EEEE, symObjAddr: 0x21A0, symBinAddr: 0x1000034F0, symSize: 0xA0 }
  - { offsetInCU: 0x20AD4, offset: 0x20AD4, size: 0x8, addend: 0x0, symName: __Z7printerNSt3__16vectorINS0_INS_12basic_stringIcNS_11char_traitsIcEENS_9allocatorIcEEEENS4_IS6_EEEENS4_IS8_EEEE, symObjAddr: 0x2240, symBinAddr: 0x100003590, symSize: 0x170 }
  - { offsetInCU: 0x20B44, offset: 0x20B44, size: 0x8, addend: 0x0, symName: __ZNKSt3__16vectorINS0_INS_12basic_stringIcNS_11char_traitsIcEENS_9allocatorIcEEEENS4_IS6_EEEENS4_IS8_EEE4sizeB8ue170006Ev, symObjAddr: 0x23B0, symBinAddr: 0x100003700, symSize: 0x30 }
  - { offsetInCU: 0x20B6A, offset: 0x20B6A, size: 0x8, addend: 0x0, symName: __ZNSt3__16vectorINS0_INS_12basic_stringIcNS_11char_traitsIcEENS_9allocatorIcEEEENS4_IS6_EEEENS4_IS8_EEEixB8ue170006Em, symObjAddr: 0x23E0, symBinAddr: 0x100003730, symSize: 0x20 }
  - { offsetInCU: 0x20BA0, offset: 0x20BA0, size: 0x8, addend: 0x0, symName: __Z7printerNSt3__16vectorINS0_I4WurdNS_9allocatorIS1_EEEENS2_IS4_EEEE, symObjAddr: 0x2400, symBinAddr: 0x100003750, symSize: 0x150 }
  - { offsetInCU: 0x20C10, offset: 0x20C10, size: 0x8, addend: 0x0, symName: __ZNKSt3__16vectorINS0_I4WurdNS_9allocatorIS1_EEEENS2_IS4_EEE4sizeB8ue170006Ev, symObjAddr: 0x2550, symBinAddr: 0x1000038A0, symSize: 0x30 }
  - { offsetInCU: 0x20C36, offset: 0x20C36, size: 0x8, addend: 0x0, symName: __ZNSt3__16vectorINS0_I4WurdNS_9allocatorIS1_EEEENS2_IS4_EEEixB8ue170006Em, symObjAddr: 0x2580, symBinAddr: 0x1000038D0, symSize: 0x20 }
  - { offsetInCU: 0x20C6D, offset: 0x20C6D, size: 0x8, addend: 0x0, symName: __ZNKSt3__16vectorI4WurdNS_9allocatorIS1_EEE4sizeB8ue170006Ev, symObjAddr: 0x25A0, symBinAddr: 0x1000038F0, symSize: 0x20 }
  - { offsetInCU: 0x20C93, offset: 0x20C93, size: 0x8, addend: 0x0, symName: __ZNSt3__16vectorI4WurdNS_9allocatorIS1_EEEixB8ue170006Em, symObjAddr: 0x25C0, symBinAddr: 0x100003910, symSize: 0x20 }
  - { offsetInCU: 0x20CCA, offset: 0x20CCA, size: 0x8, addend: 0x0, symName: __ZNK4Wurd5printEv, symObjAddr: 0x25E0, symBinAddr: 0x100003930, symSize: 0x60 }
  - { offsetInCU: 0x20CEF, offset: 0x20CEF, size: 0x8, addend: 0x0, symName: __Z7printerNSt3__16vectorIdNS_9allocatorIdEEEE, symObjAddr: 0x2640, symBinAddr: 0x100003990, symSize: 0x80 }
  - { offsetInCU: 0x20D35, offset: 0x20D35, size: 0x8, addend: 0x0, symName: __ZNKSt3__16vectorIdNS_9allocatorIdEEE4sizeB8ue170006Ev, symObjAddr: 0x26C0, symBinAddr: 0x100003A10, symSize: 0x20 }
  - { offsetInCU: 0x20D5B, offset: 0x20D5B, size: 0x8, addend: 0x0, symName: __ZNSt3__16vectorIdNS_9allocatorIdEEEixB8ue170006Em, symObjAddr: 0x26E0, symBinAddr: 0x100003A30, symSize: 0x20 }
  - { offsetInCU: 0x20D91, offset: 0x20D91, size: 0x8, addend: 0x0, symName: __Z7printerNSt3__16vectorI4WurdNS_9allocatorIS1_EEEE, symObjAddr: 0x2700, symBinAddr: 0x100003A50, symSize: 0x70 }
  - { offsetInCU: 0x20DD6, offset: 0x20DD6, size: 0x8, addend: 0x0, symName: __Z1fd, symObjAddr: 0x2770, symBinAddr: 0x100003AC0, symSize: 0x100 }
  - { offsetInCU: 0x20E2C, offset: 0x20E2C, size: 0x8, addend: 0x0, symName: __Z4sqrtB8ue170006IiENSt3__19enable_ifIXsr3std11is_integralIT_EE5valueEdE4typeES2_, symObjAddr: 0x2870, symBinAddr: 0x100003BC0, symSize: 0x20 }
  - { offsetInCU: 0x20E63, offset: 0x20E63, size: 0x8, addend: 0x0, symName: __Z10quadraturei, symObjAddr: 0x2890, symBinAddr: 0x100003BE0, symSize: 0xD0 }
  - { offsetInCU: 0x20EBB, offset: 0x20EBB, size: 0x8, addend: 0x0, symName: __ZNSt3__16vectorIdNS_9allocatorIdEEEC1B8ue170006Ev, symObjAddr: 0x2960, symBinAddr: 0x100003CB0, symSize: 0x20 }
  - { offsetInCU: 0x20EE5, offset: 0x20EE5, size: 0x8, addend: 0x0, symName: __ZNSt3__16vectorIdNS_9allocatorIdEEE9push_backB8ue170006EOd, symObjAddr: 0x2980, symBinAddr: 0x100003CD0, symSize: 0x60 }
  - { offsetInCU: 0x20F1C, offset: 0x20F1C, size: 0x8, addend: 0x0, symName: __ZNSt3__16vectorIdNS_9allocatorIdEEED1B8ue170006Ev, symObjAddr: 0x29E0, symBinAddr: 0x100003D30, symSize: 0x20 }
  - { offsetInCU: 0x20F45, offset: 0x20F45, size: 0x8, addend: 0x0, symName: __Z6weightddd, symObjAddr: 0x2A00, symBinAddr: 0x100003D50, symSize: 0x40 }
  - { offsetInCU: 0x20F8D, offset: 0x20F8D, size: 0x8, addend: 0x0, symName: __Z4swapR4WurdS0_, symObjAddr: 0x2A40, symBinAddr: 0x100003D90, symSize: 0x80 }
  - { offsetInCU: 0x20FD2, offset: 0x20FD2, size: 0x8, addend: 0x0, symName: __ZN4WurdC1ERKS_, symObjAddr: 0x2AC0, symBinAddr: 0x100003E10, symSize: 0x30 }
  - { offsetInCU: 0x21007, offset: 0x21007, size: 0x8, addend: 0x0, symName: __ZN4WurdaSERKS_, symObjAddr: 0x2AF0, symBinAddr: 0x100003E40, symSize: 0x40 }
  - { offsetInCU: 0x21038, offset: 0x21038, size: 0x8, addend: 0x0, symName: __ZN4WurdD1Ev, symObjAddr: 0x2B30, symBinAddr: 0x100003E80, symSize: 0x20 }
  - { offsetInCU: 0x21063, offset: 0x21063, size: 0x8, addend: 0x0, symName: __Z9sortWurdsRNSt3__16vectorI4WurdNS_9allocatorIS1_EEEE, symObjAddr: 0x2B50, symBinAddr: 0x100003EA0, symSize: 0xF0 }
  - { offsetInCU: 0x210D2, offset: 0x210D2, size: 0x8, addend: 0x0, symName: __ZNK4Wurd4getPEv, symObjAddr: 0x2C40, symBinAddr: 0x100003F90, symSize: 0x20 }
  - { offsetInCU: 0x210F7, offset: 0x210F7, size: 0x8, addend: 0x0, symName: __Z4sortRNSt3__16vectorINS0_I4WurdNS_9allocatorIS1_EEEENS2_IS4_EEEE, symObjAddr: 0x2C60, symBinAddr: 0x100003FB0, symSize: 0x80 }
  - { offsetInCU: 0x21171, offset: 0x21171, size: 0x8, addend: 0x0, symName: __ZNSt3__16vectorINS0_I4WurdNS_9allocatorIS1_EEEENS2_IS4_EEE5beginB8ue170006Ev, symObjAddr: 0x2CE0, symBinAddr: 0x100004030, symSize: 0x30 }
  - { offsetInCU: 0x21199, offset: 0x21199, size: 0x8, addend: 0x0, symName: __ZNSt3__16vectorINS0_I4WurdNS_9allocatorIS1_EEEENS2_IS4_EEE3endB8ue170006Ev, symObjAddr: 0x2D10, symBinAddr: 0x100004060, symSize: 0x30 }
  - { offsetInCU: 0x211C1, offset: 0x211C1, size: 0x8, addend: 0x0, symName: __ZNKSt3__111__wrap_iterIPNS_6vectorI4WurdNS_9allocatorIS2_EEEEEdeB8ue170006Ev, symObjAddr: 0x2D70, symBinAddr: 0x1000040C0, symSize: 0x20 }
  - { offsetInCU: 0x211E7, offset: 0x211E7, size: 0x8, addend: 0x0, symName: __ZNSt3__111__wrap_iterIPNS_6vectorI4WurdNS_9allocatorIS2_EEEEEppB8ue170006Ev, symObjAddr: 0x2D90, symBinAddr: 0x1000040E0, symSize: 0x20 }
  - { offsetInCU: 0x2120C, offset: 0x2120C, size: 0x8, addend: 0x0, symName: __Z10bubbleSortRNSt3__16vectorI4WurdNS_9allocatorIS1_EEEE, symObjAddr: 0x2DB0, symBinAddr: 0x100004100, symSize: 0x100 }
  - { offsetInCU: 0x21288, offset: 0x21288, size: 0x8, addend: 0x0, symName: __Z14sortAndFlattenRNSt3__16vectorINS0_I4WurdNS_9allocatorIS1_EEEENS2_IS4_EEEE, symObjAddr: 0x2EB0, symBinAddr: 0x100004200, symSize: 0x170 }
  - { offsetInCU: 0x21363, offset: 0x21363, size: 0x8, addend: 0x0, symName: __ZNSt3__16vectorI4WurdNS_9allocatorIS1_EEEC1B8ue170006Ev, symObjAddr: 0x3020, symBinAddr: 0x100004370, symSize: 0x20 }
  - { offsetInCU: 0x2138D, offset: 0x2138D, size: 0x8, addend: 0x0, symName: __ZNKSt3__16vectorI4WurdNS_9allocatorIS1_EEE5beginB8ue170006Ev, symObjAddr: 0x3040, symBinAddr: 0x100004390, symSize: 0x30 }
  - { offsetInCU: 0x213B5, offset: 0x213B5, size: 0x8, addend: 0x0, symName: __ZNKSt3__16vectorI4WurdNS_9allocatorIS1_EEE3endB8ue170006Ev, symObjAddr: 0x3070, symBinAddr: 0x1000043C0, symSize: 0x30 }
  - { offsetInCU: 0x213DD, offset: 0x213DD, size: 0x8, addend: 0x0, symName: __ZNKSt3__111__wrap_iterIPK4WurdEdeB8ue170006Ev, symObjAddr: 0x30D0, symBinAddr: 0x100004420, symSize: 0x20 }
  - { offsetInCU: 0x21403, offset: 0x21403, size: 0x8, addend: 0x0, symName: __ZNSt3__16vectorI4WurdNS_9allocatorIS1_EEE9push_backB8ue170006ERKS1_, symObjAddr: 0x30F0, symBinAddr: 0x100004440, symSize: 0x60 }
  - { offsetInCU: 0x2143A, offset: 0x2143A, size: 0x8, addend: 0x0, symName: __ZNSt3__111__wrap_iterIPK4WurdEppB8ue170006Ev, symObjAddr: 0x3150, symBinAddr: 0x1000044A0, symSize: 0x20 }
  - { offsetInCU: 0x21460, offset: 0x21460, size: 0x8, addend: 0x0, symName: __ZNSt3__16vectorI4WurdNS_9allocatorIS1_EEED1B8ue170006Ev, symObjAddr: 0x3170, symBinAddr: 0x1000044C0, symSize: 0x20 }
  - { offsetInCU: 0x21489, offset: 0x21489, size: 0x8, addend: 0x0, symName: __Z8findSidecNSt3__16vectorINS_12basic_stringIcNS_11char_traitsIcEENS_9allocatorIcEEEENS4_IS6_EEEE, symObjAddr: 0x3190, symBinAddr: 0x1000044E0, symSize: 0xE0 }
  - { offsetInCU: 0x214FD, offset: 0x214FD, size: 0x8, addend: 0x0, symName: __ZNSt3__112basic_stringIcNS_11char_traitsIcEENS_9allocatorIcEEEixB8ue170006Em, symObjAddr: 0x3270, symBinAddr: 0x1000045C0, symSize: 0x30 }
  - { offsetInCU: 0x21531, offset: 0x21531, size: 0x8, addend: 0x0, symName: __Z21countUniqueCharactersRKNSt3__112basic_stringIcNS_11char_traitsIcEENS_9allocatorIcEEEERNS_13unordered_setIcNS_4hashIcEENS_8equal_toIcEES4_EE, symObjAddr: 0x32A0, symBinAddr: 0x1000045F0, symSize: 0xA0 }
  - { offsetInCU: 0x21634, offset: 0x21634, size: 0x8, addend: 0x0, symName: __ZNKSt3__113unordered_setIcNS_4hashIcEENS_8equal_toIcEENS_9allocatorIcEEE4sizeB8ue170006Ev, symObjAddr: 0x3340, symBinAddr: 0x100004690, symSize: 0x20 }
  - { offsetInCU: 0x2165A, offset: 0x2165A, size: 0x8, addend: 0x0, symName: __ZNSt3__113unordered_setIcNS_4hashIcEENS_8equal_toIcEENS_9allocatorIcEEE6insertB8ue170006ERKc, symObjAddr: 0x3360, symBinAddr: 0x1000046B0, symSize: 0x40 }
  - { offsetInCU: 0x2168E, offset: 0x2168E, size: 0x8, addend: 0x0, symName: __Z9ratUnique4Wurdd, symObjAddr: 0x33A0, symBinAddr: 0x1000046F0, symSize: 0xF0 }
  - { offsetInCU: 0x216E6, offset: 0x216E6, size: 0x8, addend: 0x0, symName: __ZNSt3__113unordered_setIcNS_4hashIcEENS_8equal_toIcEENS_9allocatorIcEEEC1B8ue170006Ev, symObjAddr: 0x3490, symBinAddr: 0x1000047E0, symSize: 0x20 }
  - { offsetInCU: 0x21710, offset: 0x21710, size: 0x8, addend: 0x0, symName: __ZNK4Wurd4getWEv, symObjAddr: 0x34B0, symBinAddr: 0x100004800, symSize: 0x30 }
  - { offsetInCU: 0x21736, offset: 0x21736, size: 0x8, addend: 0x0, symName: __ZNSt3__113unordered_setIcNS_4hashIcEENS_8equal_toIcEENS_9allocatorIcEEED1B8ue170006Ev, symObjAddr: 0x34E0, symBinAddr: 0x100004830, symSize: 0x20 }
  - { offsetInCU: 0x2175F, offset: 0x2175F, size: 0x8, addend: 0x0, symName: __Z9ratUnique4WurdS_NSt3__16vectorINS0_12basic_stringIcNS0_11char_traitsIcEENS0_9allocatorIcEEEENS5_IS7_EEEEd, symObjAddr: 0x3500, symBinAddr: 0x100004850, symSize: 0x170 }
  - { offsetInCU: 0x217D6, offset: 0x217D6, size: 0x8, addend: 0x0, symName: __Z7ratPossNSt3__16vectorIiNS_9allocatorIiEEEE4Wurdi, symObjAddr: 0x3670, symBinAddr: 0x1000049C0, symSize: 0xF0 }
  - { offsetInCU: 0x2184C, offset: 0x2184C, size: 0x8, addend: 0x0, symName: __Z12isOnSameSideRNSt3__16vectorIbNS_9allocatorIbEEEEcNS0_INS_12basic_stringIcNS_11char_traitsIcEENS1_IcEEEENS1_IS9_EEEE, symObjAddr: 0x3760, symBinAddr: 0x100004AB0, symSize: 0x140 }
  - { offsetInCU: 0x218C1, offset: 0x218C1, size: 0x8, addend: 0x0, symName: __ZNSt3__16vectorIbNS_9allocatorIbEEEixB8ue170006Em, symObjAddr: 0x38A0, symBinAddr: 0x100004BF0, symSize: 0x40 }
  - { offsetInCU: 0x218F6, offset: 0x218F6, size: 0x8, addend: 0x0, symName: __ZNKSt3__115__bit_referenceINS_6vectorIbNS_9allocatorIbEEEELb1EEcvbB8ue170006Ev, symObjAddr: 0x38E0, symBinAddr: 0x100004C30, symSize: 0x30 }
  - { offsetInCU: 0x2191C, offset: 0x2191C, size: 0x8, addend: 0x0, symName: __ZNKSt3__16vectorIbNS_9allocatorIbEEE4sizeB8ue170006Ev, symObjAddr: 0x3910, symBinAddr: 0x100004C60, symSize: 0x20 }
  - { offsetInCU: 0x21942, offset: 0x21942, size: 0x8, addend: 0x0, symName: __ZNSt3__115__bit_referenceINS_6vectorIbNS_9allocatorIbEEEELb1EEaSB8ue170006Eb, symObjAddr: 0x3930, symBinAddr: 0x100004C80, symSize: 0x60 }
  - { offsetInCU: 0x21975, offset: 0x21975, size: 0x8, addend: 0x0, symName: __Z6addRatRNSt3__16vectorINS0_I4WurdNS_9allocatorIS1_EEEENS2_IS4_EEEEdNS0_IdNS2_IdEEEEiNS0_IiNS2_IiEEEE, symObjAddr: 0x3990, symBinAddr: 0x100004CE0, symSize: 0x340 }
  - { offsetInCU: 0x21A32, offset: 0x21A32, size: 0x8, addend: 0x0, symName: __ZNSt3__16vectorIiNS_9allocatorIiEEEC1ERKS3_, symObjAddr: 0x3CD0, symBinAddr: 0x100005020, symSize: 0x30 }
  - { offsetInCU: 0x21A6D, offset: 0x21A6D, size: 0x8, addend: 0x0, symName: __ZN4Wurd4setPEd, symObjAddr: 0x3D00, symBinAddr: 0x100005050, symSize: 0x20 }
  - { offsetInCU: 0x21AA0, offset: 0x21AA0, size: 0x8, addend: 0x0, symName: __Z6addRatRNSt3__16vectorI4WurdNS_9allocatorIS1_EEEEdNS0_IdNS2_IdEEEEiNS0_IiNS2_IiEEEE, symObjAddr: 0x3D20, symBinAddr: 0x100005070, symSize: 0x2C0 }
  - { offsetInCU: 0x21B48, offset: 0x21B48, size: 0x8, addend: 0x0, symName: __Z8possibleRKNSt3__16vectorINS_12basic_stringIcNS_11char_traitsIcEENS_9allocatorIcEEEENS4_IS6_EEEES6_RNS0_IbNS4_IbEEEE, symObjAddr: 0x3FE0, symBinAddr: 0x100005330, symSize: 0x110 }
  - { offsetInCU: 0x21BA5, offset: 0x21BA5, size: 0x8, addend: 0x0, symName: __Z7avgSizeNSt3__16vectorINS0_I4WurdNS_9allocatorIS1_EEEENS2_IS4_EEEERiRNS0_IiNS2_IiEEEE, symObjAddr: 0x40F0, symBinAddr: 0x100005440, symSize: 0x270 }
  - { offsetInCU: 0x21C51, offset: 0x21C51, size: 0x8, addend: 0x0, symName: __ZNSt3__16vectorIdNS_9allocatorIdEEE9push_backB8ue170006ERKd, symObjAddr: 0x4360, symBinAddr: 0x1000056B0, symSize: 0x60 }
  - { offsetInCU: 0x21C87, offset: 0x21C87, size: 0x8, addend: 0x0, symName: __Z12processWordsRKNSt3__16vectorINS_12basic_stringIcNS_11char_traitsIcEENS_9allocatorIcEEEENS4_IS6_EEEESA_, symObjAddr: 0x43C0, symBinAddr: 0x100005710, symSize: 0x2D0 }
  - { offsetInCU: 0x21D4A, offset: 0x21D4A, size: 0x8, addend: 0x0, symName: __ZNSt3__16vectorINS0_I4WurdNS_9allocatorIS1_EEEENS2_IS4_EEEC1Em, symObjAddr: 0x4690, symBinAddr: 0x1000059E0, symSize: 0x30 }
  - { offsetInCU: 0x21D85, offset: 0x21D85, size: 0x8, addend: 0x0, symName: __ZNKSt3__112basic_stringIcNS_11char_traitsIcEENS_9allocatorIcEEEixB8ue170006Em, symObjAddr: 0x46C0, symBinAddr: 0x100005A10, symSize: 0x30 }
  - { offsetInCU: 0x21DBA, offset: 0x21DBA, size: 0x8, addend: 0x0, symName: __ZN4WurdC1ERKNSt3__112basic_stringIcNS0_11char_traitsIcEENS0_9allocatorIcEEEEd, symObjAddr: 0x46F0, symBinAddr: 0x100005A40, symSize: 0x30 }
  - { offsetInCU: 0x21E00, offset: 0x21E00, size: 0x8, addend: 0x0, symName: __ZNSt3__16vectorINS0_I4WurdNS_9allocatorIS1_EEEENS2_IS4_EEED1B8ue170006Ev, symObjAddr: 0x4720, symBinAddr: 0x100005A70, symSize: 0x20 }
  - { offsetInCU: 0x21E29, offset: 0x21E29, size: 0x8, addend: 0x0, symName: __Z9nextGuessNSt3__16vectorINS0_I4WurdNS_9allocatorIS1_EEEENS2_IS4_EEEES1_NS0_IiNS2_IiEEEEdNS0_IdNS2_IdEEEEi, symObjAddr: 0x4740, symBinAddr: 0x100005A90, symSize: 0x270 }
  - { offsetInCU: 0x21EE1, offset: 0x21EE1, size: 0x8, addend: 0x0, symName: __ZNSt3__16vectorI4WurdNS_9allocatorIS1_EEEC1ERKS4_, symObjAddr: 0x49B0, symBinAddr: 0x100005D00, symSize: 0x30 }
  - { offsetInCU: 0x21F1C, offset: 0x21F1C, size: 0x8, addend: 0x0, symName: __ZNSt3__16vectorIdNS_9allocatorIdEEEC1ERKS3_, symObjAddr: 0x49E0, symBinAddr: 0x100005D30, symSize: 0x30 }
  - { offsetInCU: 0x21F56, offset: 0x21F56, size: 0x8, addend: 0x0, symName: __Z6solverNSt3__16vectorINS_12basic_stringIcNS_11char_traitsIcEENS_9allocatorIcEEEENS4_IS6_EEEEi, symObjAddr: 0x4A10, symBinAddr: 0x100005D60, symSize: 0x590 }
  - { offsetInCU: 0x22031, offset: 0x22031, size: 0x8, addend: 0x0, symName: __ZNSt3__16vectorINS0_I4WurdNS_9allocatorIS1_EEEENS2_IS4_EEEC1ERKS6_, symObjAddr: 0x4FA0, symBinAddr: 0x1000062F0, symSize: 0x30 }
  - { offsetInCU: 0x2206C, offset: 0x2206C, size: 0x8, addend: 0x0, symName: _main, symObjAddr: 0x4FD0, symBinAddr: 0x100006320, symSize: 0x150 }
  - { offsetInCU: 0x220A9, offset: 0x220A9, size: 0x8, addend: 0x0, symName: __ZNSt3__114basic_ifstreamIcNS_11char_traitsIcEEED2Ev, symObjAddr: 0x5290, symBinAddr: 0x1000065E0, symSize: 0xA0 }
  - { offsetInCU: 0x220E3, offset: 0x220E3, size: 0x8, addend: 0x0, symName: __ZTv0_n24_NSt3__114basic_ifstreamIcNS_11char_traitsIcEEED1Ev, symObjAddr: 0x5330, symBinAddr: 0x100006680, symSize: 0x20 }
  - { offsetInCU: 0x220FA, offset: 0x220FA, size: 0x8, addend: 0x0, symName: __ZN4WurdC2ERKS_, symObjAddr: 0x5350, symBinAddr: 0x1000066A0, symSize: 0x40 }
  - { offsetInCU: 0x2212F, offset: 0x2212F, size: 0x8, addend: 0x0, symName: __ZN4WurdD2Ev, symObjAddr: 0x5390, symBinAddr: 0x1000066E0, symSize: 0x20 }
  - { offsetInCU: 0x2215B, offset: 0x2215B, size: 0x8, addend: 0x0, symName: __ZN4WurdC2ERKNSt3__112basic_stringIcNS0_11char_traitsIcEENS0_9allocatorIcEEEEd, symObjAddr: 0x53B0, symBinAddr: 0x100006700, symSize: 0x40 }
  - { offsetInCU: 0x221A1, offset: 0x221A1, size: 0x8, addend: 0x0, symName: __ZNKSt3__112basic_stringIcNS_11char_traitsIcEENS_9allocatorIcEEE4dataB8ue170006Ev, symObjAddr: 0x55E0, symBinAddr: 0x100006930, symSize: 0x30 }
  - { offsetInCU: 0x221E5, offset: 0x221E5, size: 0x8, addend: 0x0, symName: __ZNKSt3__113basic_ostreamIcNS_11char_traitsIcEEE6sentrycvbB8ue170006Ev, symObjAddr: 0x5610, symBinAddr: 0x100006960, symSize: 0x20 }
  - { offsetInCU: 0x2220B, offset: 0x2220B, size: 0x8, addend: 0x0, symName: __ZNSt3__119ostreambuf_iteratorIcNS_11char_traitsIcEEEC1B8ue170006ERNS_13basic_ostreamIcS2_EE, symObjAddr: 0x5850, symBinAddr: 0x100006BA0, symSize: 0x30 }
  - { offsetInCU: 0x22243, offset: 0x22243, size: 0x8, addend: 0x0, symName: __ZNKSt3__18ios_base5flagsB8ue170006Ev, symObjAddr: 0x5880, symBinAddr: 0x100006BD0, symSize: 0x20 }
  - { offsetInCU: 0x2226B, offset: 0x2226B, size: 0x8, addend: 0x0, symName: __ZNKSt3__19basic_iosIcNS_11char_traitsIcEEE4fillB8ue170006Ev, symObjAddr: 0x58A0, symBinAddr: 0x100006BF0, symSize: 0x70 }
  - { offsetInCU: 0x22293, offset: 0x22293, size: 0x8, addend: 0x0, symName: __ZNKSt3__119ostreambuf_iteratorIcNS_11char_traitsIcEEE6failedB8ue170006Ev, symObjAddr: 0x5910, symBinAddr: 0x100006C60, symSize: 0x20 }
  - { offsetInCU: 0x222B9, offset: 0x222B9, size: 0x8, addend: 0x0, symName: __ZNSt3__19basic_iosIcNS_11char_traitsIcEEE8setstateB8ue170006Ej, symObjAddr: 0x5930, symBinAddr: 0x100006C80, symSize: 0x30 }
  - { offsetInCU: 0x222EE, offset: 0x222EE, size: 0x8, addend: 0x0, symName: __ZNKSt3__18ios_base5widthB8ue170006Ev, symObjAddr: 0x5960, symBinAddr: 0x100006CB0, symSize: 0x20 }
  - { offsetInCU: 0x22316, offset: 0x22316, size: 0x8, addend: 0x0, symName: __ZNSt3__115basic_streambufIcNS_11char_traitsIcEEE5sputnB8ue170006EPKcl, symObjAddr: 0x5980, symBinAddr: 0x100006CD0, symSize: 0x30 }
  - { offsetInCU: 0x22358, offset: 0x22358, size: 0x8, addend: 0x0, symName: __ZNSt3__112basic_stringIcNS_11char_traitsIcEENS_9allocatorIcEEEC1B8ue170006Emc, symObjAddr: 0x59B0, symBinAddr: 0x100006D00, symSize: 0x30 }
  - { offsetInCU: 0x223A0, offset: 0x223A0, size: 0x8, addend: 0x0, symName: __ZNSt3__18ios_base5widthB8ue170006El, symObjAddr: 0x59E0, symBinAddr: 0x100006D30, symSize: 0x30 }
  - { offsetInCU: 0x223E6, offset: 0x223E6, size: 0x8, addend: 0x0, symName: __ZNSt3__112basic_stringIcNS_11char_traitsIcEENS_9allocatorIcEEEC2B8ue170006Emc, symObjAddr: 0x5A10, symBinAddr: 0x100006D60, symSize: 0x50 }
  - { offsetInCU: 0x22433, offset: 0x22433, size: 0x8, addend: 0x0, symName: __ZNSt3__117__compressed_pairINS_12basic_stringIcNS_11char_traitsIcEENS_9allocatorIcEEE5__repES5_EC1B8ue170006INS_18__default_init_tagESA_EEOT_OT0_, symObjAddr: 0x5A60, symBinAddr: 0x100006DB0, symSize: 0x30 }
  - { offsetInCU: 0x2248B, offset: 0x2248B, size: 0x8, addend: 0x0, symName: __ZNSt3__117__compressed_pairINS_12basic_stringIcNS_11char_traitsIcEENS_9allocatorIcEEE5__repES5_EC2B8ue170006INS_18__default_init_tagESA_EEOT_OT0_, symObjAddr: 0x5A90, symBinAddr: 0x100006DE0, symSize: 0x30 }
  - { offsetInCU: 0x224E3, offset: 0x224E3, size: 0x8, addend: 0x0, symName: __ZNSt3__122__compressed_pair_elemINS_12basic_stringIcNS_11char_traitsIcEENS_9allocatorIcEEE5__repELi0ELb0EEC2B8ue170006ENS_18__default_init_tagE, symObjAddr: 0x5AC0, symBinAddr: 0x100006E10, symSize: 0x10 }
  - { offsetInCU: 0x22517, offset: 0x22517, size: 0x8, addend: 0x0, symName: __ZNSt3__122__compressed_pair_elemINS_9allocatorIcEELi1ELb1EEC2B8ue170006ENS_18__default_init_tagE, symObjAddr: 0x5AD0, symBinAddr: 0x100006E20, symSize: 0x20 }
  - { offsetInCU: 0x2254B, offset: 0x2254B, size: 0x8, addend: 0x0, symName: __ZNSt3__19allocatorIcEC2B8ue170006Ev, symObjAddr: 0x5AF0, symBinAddr: 0x100006E40, symSize: 0x20 }
  - { offsetInCU: 0x22575, offset: 0x22575, size: 0x8, addend: 0x0, symName: __ZNSt3__116__non_trivial_ifILb1ENS_9allocatorIcEEEC2B8ue170006Ev, symObjAddr: 0x5B10, symBinAddr: 0x100006E60, symSize: 0x10 }
  - { offsetInCU: 0x2259F, offset: 0x2259F, size: 0x8, addend: 0x0, symName: __ZNSt3__119ostreambuf_iteratorIcNS_11char_traitsIcEEEC2B8ue170006ERNS_13basic_ostreamIcS2_EE, symObjAddr: 0x5B20, symBinAddr: 0x100006E70, symSize: 0x60 }
  - { offsetInCU: 0x225D7, offset: 0x225D7, size: 0x8, addend: 0x0, symName: __ZNKSt3__19basic_iosIcNS_11char_traitsIcEEE5rdbufB8ue170006Ev, symObjAddr: 0x5B80, symBinAddr: 0x100006ED0, symSize: 0x20 }
  - { offsetInCU: 0x225FF, offset: 0x225FF, size: 0x8, addend: 0x0, symName: __ZNKSt3__18ios_base5rdbufB8ue170006Ev, symObjAddr: 0x5BA0, symBinAddr: 0x100006EF0, symSize: 0x20 }
  - { offsetInCU: 0x22625, offset: 0x22625, size: 0x8, addend: 0x0, symName: __ZNSt3__111char_traitsIcE11eq_int_typeB8ue170006Eii, symObjAddr: 0x5BC0, symBinAddr: 0x100006F10, symSize: 0x20 }
  - { offsetInCU: 0x22658, offset: 0x22658, size: 0x8, addend: 0x0, symName: __ZNSt3__111char_traitsIcE3eofB8ue170006Ev, symObjAddr: 0x5BE0, symBinAddr: 0x100006F30, symSize: 0x10 }
  - { offsetInCU: 0x2266C, offset: 0x2266C, size: 0x8, addend: 0x0, symName: __ZNKSt3__19basic_iosIcNS_11char_traitsIcEEE5widenB8ue170006Ec, symObjAddr: 0x5BF0, symBinAddr: 0x100006F40, symSize: 0x90 }
  - { offsetInCU: 0x226CB, offset: 0x226CB, size: 0x8, addend: 0x0, symName: __ZNKSt3__15ctypeIcE5widenB8ue170006Ec, symObjAddr: 0x5CB0, symBinAddr: 0x100007000, symSize: 0x30 }
  - { offsetInCU: 0x22700, offset: 0x22700, size: 0x8, addend: 0x0, symName: __ZNSt3__18ios_base8setstateB8ue170006Ej, symObjAddr: 0x5CE0, symBinAddr: 0x100007030, symSize: 0x30 }
  - { offsetInCU: 0x22737, offset: 0x22737, size: 0x8, addend: 0x0, symName: __ZNKSt3__112basic_stringIcNS_11char_traitsIcEENS_9allocatorIcEEE13__get_pointerB8ue170006Ev, symObjAddr: 0x5D20, symBinAddr: 0x100007070, symSize: 0x50 }
  - { offsetInCU: 0x2275D, offset: 0x2275D, size: 0x8, addend: 0x0, symName: __ZNKSt3__112basic_stringIcNS_11char_traitsIcEENS_9allocatorIcEEE9__is_longB8ue170006Ev, symObjAddr: 0x5D70, symBinAddr: 0x1000070C0, symSize: 0x60 }
  - { offsetInCU: 0x22783, offset: 0x22783, size: 0x8, addend: 0x0, symName: __ZNKSt3__112basic_stringIcNS_11char_traitsIcEENS_9allocatorIcEEE18__get_long_pointerB8ue170006Ev, symObjAddr: 0x5DD0, symBinAddr: 0x100007120, symSize: 0x20 }
  - { offsetInCU: 0x227A9, offset: 0x227A9, size: 0x8, addend: 0x0, symName: __ZNKSt3__112basic_stringIcNS_11char_traitsIcEENS_9allocatorIcEEE19__get_short_pointerB8ue170006Ev, symObjAddr: 0x5DF0, symBinAddr: 0x100007140, symSize: 0x30 }
  - { offsetInCU: 0x227CF, offset: 0x227CF, size: 0x8, addend: 0x0, symName: __ZNKSt3__117__compressed_pairINS_12basic_stringIcNS_11char_traitsIcEENS_9allocatorIcEEE5__repES5_E5firstB8ue170006Ev, symObjAddr: 0x5E30, symBinAddr: 0x100007180, symSize: 0x20 }
  - { offsetInCU: 0x227F5, offset: 0x227F5, size: 0x8, addend: 0x0, symName: __ZNKSt3__122__compressed_pair_elemINS_12basic_stringIcNS_11char_traitsIcEENS_9allocatorIcEEE5__repELi0ELb0EE5__getB8ue170006Ev, symObjAddr: 0x5E50, symBinAddr: 0x1000071A0, symSize: 0x10 }
  - { offsetInCU: 0x2281B, offset: 0x2281B, size: 0x8, addend: 0x0, symName: __ZNSt3__114pointer_traitsIPKcE10pointer_toB8ue170006ERS1_, symObjAddr: 0x5E60, symBinAddr: 0x1000071B0, symSize: 0x10 }
  - { offsetInCU: 0x2283E, offset: 0x2283E, size: 0x8, addend: 0x0, symName: __ZNSt3__111char_traitsIcE6lengthB8ue170006EPKc, symObjAddr: 0x5E70, symBinAddr: 0x1000071C0, symSize: 0x40 }
  - { offsetInCU: 0x22861, offset: 0x22861, size: 0x8, addend: 0x0, symName: __ZNSt3__19basic_iosIcNS_11char_traitsIcEEEC2B8ue170006Ev, symObjAddr: 0x5ED0, symBinAddr: 0x100007220, symSize: 0x40 }
  - { offsetInCU: 0x2288B, offset: 0x2288B, size: 0x8, addend: 0x0, symName: __ZNSt3__113basic_istreamIcNS_11char_traitsIcEEEC2B8ue170006EPNS_15basic_streambufIcS2_EE, symObjAddr: 0x5F10, symBinAddr: 0x100007260, symSize: 0x50 }
  - { offsetInCU: 0x228D0, offset: 0x228D0, size: 0x8, addend: 0x0, symName: __ZNSt3__18ios_baseC2B8ue170006Ev, symObjAddr: 0x5F60, symBinAddr: 0x1000072B0, symSize: 0x20 }
  - { offsetInCU: 0x228FA, offset: 0x228FA, size: 0x8, addend: 0x0, symName: __ZNSt3__19basic_iosIcNS_11char_traitsIcEEE4initB8ue170006EPNS_15basic_streambufIcS2_EE, symObjAddr: 0x5F80, symBinAddr: 0x1000072D0, symSize: 0x50 }
  - { offsetInCU: 0x22931, offset: 0x22931, size: 0x8, addend: 0x0, symName: __ZNKSt3__113basic_filebufIcNS_11char_traitsIcEEE7is_openEv, symObjAddr: 0x5FD0, symBinAddr: 0x100007320, symSize: 0x20 }
  - { offsetInCU: 0x22959, offset: 0x22959, size: 0x8, addend: 0x0, symName: __ZNSt3__112basic_stringIcNS_11char_traitsIcEENS_9allocatorIcEEEC2B8ue170006Ev, symObjAddr: 0x5FF0, symBinAddr: 0x100007340, symSize: 0x30 }
  - { offsetInCU: 0x22983, offset: 0x22983, size: 0x8, addend: 0x0, symName: __ZNSt3__112basic_stringIcNS_11char_traitsIcEENS_9allocatorIcEEE14__default_initB8ue170006Ev, symObjAddr: 0x6020, symBinAddr: 0x100007370, symSize: 0xC0 }
  - { offsetInCU: 0x229D5, offset: 0x229D5, size: 0x8, addend: 0x0, symName: __ZNSt3__117__compressed_pairINS_12basic_stringIcNS_11char_traitsIcEENS_9allocatorIcEEE5__repES5_E5firstB8ue170006Ev, symObjAddr: 0x60E0, symBinAddr: 0x100007430, symSize: 0x20 }
  - { offsetInCU: 0x229FB, offset: 0x229FB, size: 0x8, addend: 0x0, symName: __ZNSt3__112basic_stringIcNS_11char_traitsIcEENS_9allocatorIcEEE11__recommendB8ue170006Em, symObjAddr: 0x6100, symBinAddr: 0x100007450, symSize: 0x90 }
  - { offsetInCU: 0x22A2E, offset: 0x22A2E, size: 0x8, addend: 0x0, symName: __ZNSt3__116allocator_traitsINS_9allocatorIcEEE8allocateB8ue170006ERS2_m, symObjAddr: 0x6190, symBinAddr: 0x1000074E0, symSize: 0x30 }
  - { offsetInCU: 0x22A61, offset: 0x22A61, size: 0x8, addend: 0x0, symName: __ZNSt3__112basic_stringIcNS_11char_traitsIcEENS_9allocatorIcEEE7__allocB8ue170006Ev, symObjAddr: 0x61C0, symBinAddr: 0x100007510, symSize: 0x20 }
  - { offsetInCU: 0x22A87, offset: 0x22A87, size: 0x8, addend: 0x0, symName: __ZNSt3__112basic_stringIcNS_11char_traitsIcEENS_9allocatorIcEEE16__begin_lifetimeB8ue170006EPcm, symObjAddr: 0x61E0, symBinAddr: 0x100007530, symSize: 0x10 }
  - { offsetInCU: 0x22ABA, offset: 0x22ABA, size: 0x8, addend: 0x0, symName: __ZNSt3__112basic_stringIcNS_11char_traitsIcEENS_9allocatorIcEEE18__set_long_pointerB8ue170006EPc, symObjAddr: 0x61F0, symBinAddr: 0x100007540, symSize: 0x30 }
  - { offsetInCU: 0x22AEF, offset: 0x22AEF, size: 0x8, addend: 0x0, symName: __ZNSt3__112basic_stringIcNS_11char_traitsIcEENS_9allocatorIcEEE14__set_long_capB8ue170006Em, symObjAddr: 0x6220, symBinAddr: 0x100007570, symSize: 0x70 }
  - { offsetInCU: 0x22B24, offset: 0x22B24, size: 0x8, addend: 0x0, symName: __ZNSt3__112basic_stringIcNS_11char_traitsIcEENS_9allocatorIcEEE15__set_long_sizeB8ue170006Em, symObjAddr: 0x6290, symBinAddr: 0x1000075E0, symSize: 0x30 }
  - { offsetInCU: 0x22B59, offset: 0x22B59, size: 0x8, addend: 0x0, symName: __ZNSt3__122__compressed_pair_elemINS_12basic_stringIcNS_11char_traitsIcEENS_9allocatorIcEEE5__repELi0ELb0EE5__getB8ue170006Ev, symObjAddr: 0x62C0, symBinAddr: 0x100007610, symSize: 0x10 }
  - { offsetInCU: 0x22B7F, offset: 0x22B7F, size: 0x8, addend: 0x0, symName: __ZNSt3__112basic_stringIcNS_11char_traitsIcEENS_9allocatorIcEEE10__align_itB8ue170006ILm16EEEmm, symObjAddr: 0x62D0, symBinAddr: 0x100007620, symSize: 0x20 }
  - { offsetInCU: 0x22BAD, offset: 0x22BAD, size: 0x8, addend: 0x0, symName: __ZNSt3__19allocatorIcE8allocateB8ue170006Em, symObjAddr: 0x62F0, symBinAddr: 0x100007640, symSize: 0x80 }
  - { offsetInCU: 0x22BEB, offset: 0x22BEB, size: 0x8, addend: 0x0, symName: __ZNSt3__116allocator_traitsINS_9allocatorIcEEE8max_sizeB8ue170006IS2_vEEmRKS2_, symObjAddr: 0x6370, symBinAddr: 0x1000076C0, symSize: 0x20 }
  - { offsetInCU: 0x22C19, offset: 0x22C19, size: 0x8, addend: 0x0, symName: __ZNKSt3__19allocatorIcE8max_sizeB8ue170006Ev, symObjAddr: 0x63F0, symBinAddr: 0x100007740, symSize: 0x20 }
  - { offsetInCU: 0x22C3F, offset: 0x22C3F, size: 0x8, addend: 0x0, symName: __ZNSt3__117__compressed_pairINS_12basic_stringIcNS_11char_traitsIcEENS_9allocatorIcEEE5__repES5_E6secondB8ue170006Ev, symObjAddr: 0x6430, symBinAddr: 0x100007780, symSize: 0x20 }
  - { offsetInCU: 0x22C65, offset: 0x22C65, size: 0x8, addend: 0x0, symName: __ZNSt3__122__compressed_pair_elemINS_9allocatorIcEELi1ELb1EE5__getB8ue170006Ev, symObjAddr: 0x6450, symBinAddr: 0x1000077A0, symSize: 0x10 }
  - { offsetInCU: 0x22CA9, offset: 0x22CA9, size: 0x8, addend: 0x0, symName: __ZNKSt3__113basic_istreamIcNS_11char_traitsIcEEE6sentrycvbB8ue170006Ev, symObjAddr: 0x6680, symBinAddr: 0x1000079D0, symSize: 0x20 }
  - { offsetInCU: 0x22CCF, offset: 0x22CCF, size: 0x8, addend: 0x0, symName: __ZNSt3__112basic_stringIcNS_11char_traitsIcEENS_9allocatorIcEEE5clearB8ue170006Ev, symObjAddr: 0x66A0, symBinAddr: 0x1000079F0, symSize: 0x80 }
  - { offsetInCU: 0x22CF7, offset: 0x22CF7, size: 0x8, addend: 0x0, symName: __ZNSt3__115basic_streambufIcNS_11char_traitsIcEEE6sbumpcB8ue170006Ev, symObjAddr: 0x6720, symBinAddr: 0x100007A70, symSize: 0x60 }
  - { offsetInCU: 0x22D1D, offset: 0x22D1D, size: 0x8, addend: 0x0, symName: __ZNSt3__111char_traitsIcE12to_char_typeB8ue170006Ei, symObjAddr: 0x6780, symBinAddr: 0x100007AD0, symSize: 0x10 }
  - { offsetInCU: 0x22D40, offset: 0x22D40, size: 0x8, addend: 0x0, symName: __ZNSt3__111char_traitsIcE2eqEcc, symObjAddr: 0x6790, symBinAddr: 0x100007AE0, symSize: 0x30 }
  - { offsetInCU: 0x22D71, offset: 0x22D71, size: 0x8, addend: 0x0, symName: __ZNKSt3__112basic_stringIcNS_11char_traitsIcEENS_9allocatorIcEEE8max_sizeB8ue170006Ev, symObjAddr: 0x67C0, symBinAddr: 0x100007B10, symSize: 0xA0 }
  - { offsetInCU: 0x22DC3, offset: 0x22DC3, size: 0x8, addend: 0x0, symName: __ZNSt3__18ios_base18__setstate_nothrowB8ue170006Ej, symObjAddr: 0x6860, symBinAddr: 0x100007BB0, symSize: 0x50 }
  - { offsetInCU: 0x22DF8, offset: 0x22DF8, size: 0x8, addend: 0x0, symName: __ZNKSt3__19basic_iosIcNS_11char_traitsIcEEE10exceptionsB8ue170006Ev, symObjAddr: 0x68B0, symBinAddr: 0x100007C00, symSize: 0x20 }
  - { offsetInCU: 0x22E1E, offset: 0x22E1E, size: 0x8, addend: 0x0, symName: __ZNSt3__111char_traitsIcE6assignB8ue170006ERcRKc, symObjAddr: 0x68D0, symBinAddr: 0x100007C20, symSize: 0x20 }
  - { offsetInCU: 0x22E4F, offset: 0x22E4F, size: 0x8, addend: 0x0, symName: __ZNSt3__112basic_stringIcNS_11char_traitsIcEENS_9allocatorIcEEE18__get_long_pointerB8ue170006Ev, symObjAddr: 0x68F0, symBinAddr: 0x100007C40, symSize: 0x20 }
  - { offsetInCU: 0x22E75, offset: 0x22E75, size: 0x8, addend: 0x0, symName: __ZNSt3__112basic_stringIcNS_11char_traitsIcEENS_9allocatorIcEEE19__get_short_pointerB8ue170006Ev, symObjAddr: 0x6910, symBinAddr: 0x100007C60, symSize: 0x30 }
  - { offsetInCU: 0x22E9B, offset: 0x22E9B, size: 0x8, addend: 0x0, symName: __ZNSt3__112basic_stringIcNS_11char_traitsIcEENS_9allocatorIcEEE16__set_short_sizeB8ue170006Em, symObjAddr: 0x6940, symBinAddr: 0x100007C90, symSize: 0x50 }
  - { offsetInCU: 0x22ED0, offset: 0x22ED0, size: 0x8, addend: 0x0, symName: __ZNSt3__114pointer_traitsIPcE10pointer_toB8ue170006ERc, symObjAddr: 0x6990, symBinAddr: 0x100007CE0, symSize: 0x10 }
  - { offsetInCU: 0x22EF3, offset: 0x22EF3, size: 0x8, addend: 0x0, symName: __ZNSt3__111char_traitsIcE11to_int_typeB8ue170006Ec, symObjAddr: 0x69A0, symBinAddr: 0x100007CF0, symSize: 0x10 }
  - { offsetInCU: 0x22F17, offset: 0x22F17, size: 0x8, addend: 0x0, symName: __ZNKSt3__112basic_stringIcNS_11char_traitsIcEENS_9allocatorIcEEE7__allocB8ue170006Ev, symObjAddr: 0x69B0, symBinAddr: 0x100007D00, symSize: 0x20 }
  - { offsetInCU: 0x22F3D, offset: 0x22F3D, size: 0x8, addend: 0x0, symName: __ZNSt3__114numeric_limitsImE3maxB8ue170006Ev, symObjAddr: 0x69D0, symBinAddr: 0x100007D20, symSize: 0x10 }
  - { offsetInCU: 0x22F51, offset: 0x22F51, size: 0x8, addend: 0x0, symName: __ZNKSt3__117__compressed_pairINS_12basic_stringIcNS_11char_traitsIcEENS_9allocatorIcEEE5__repES5_E6secondB8ue170006Ev, symObjAddr: 0x69E0, symBinAddr: 0x100007D30, symSize: 0x20 }
  - { offsetInCU: 0x22F77, offset: 0x22F77, size: 0x8, addend: 0x0, symName: __ZNKSt3__122__compressed_pair_elemINS_9allocatorIcEELi1ELb1EE5__getB8ue170006Ev, symObjAddr: 0x6A00, symBinAddr: 0x100007D50, symSize: 0x10 }
  - { offsetInCU: 0x22F9D, offset: 0x22F9D, size: 0x8, addend: 0x0, symName: __ZNSt3__123__libcpp_numeric_limitsImLb1EE3maxB8ue170006Ev, symObjAddr: 0x6A10, symBinAddr: 0x100007D60, symSize: 0x10 }
  - { offsetInCU: 0x22FB1, offset: 0x22FB1, size: 0x8, addend: 0x0, symName: __ZNKSt3__18ios_base10exceptionsB8ue170006Ev, symObjAddr: 0x6A20, symBinAddr: 0x100007D70, symSize: 0x20 }
  - { offsetInCU: 0x22FD9, offset: 0x22FD9, size: 0x8, addend: 0x0, symName: __ZNKSt3__19basic_iosIcNS_11char_traitsIcEEE4failB8ue170006Ev, symObjAddr: 0x6A40, symBinAddr: 0x100007D90, symSize: 0x20 }
  - { offsetInCU: 0x22FFF, offset: 0x22FFF, size: 0x8, addend: 0x0, symName: __ZNKSt3__18ios_base4failB8ue170006Ev, symObjAddr: 0x6A60, symBinAddr: 0x100007DB0, symSize: 0x20 }
  - { offsetInCU: 0x23027, offset: 0x23027, size: 0x8, addend: 0x0, symName: __ZNSt3__16vectorINS_12basic_stringIcNS_11char_traitsIcEENS_9allocatorIcEEEENS4_IS6_EEE9__end_capB8ue170006Ev, symObjAddr: 0x6A80, symBinAddr: 0x100007DD0, symSize: 0x20 }
  - { offsetInCU: 0x2304D, offset: 0x2304D, size: 0x8, addend: 0x0, symName: __ZNSt3__16vectorINS_12basic_stringIcNS_11char_traitsIcEENS_9allocatorIcEEEENS4_IS6_EEE22__construct_one_at_endB8ue170006IJRKS6_EEEvDpOT_, symObjAddr: 0x6AA0, symBinAddr: 0x100007DF0, symSize: 0xA0 }
  - { offsetInCU: 0x2309C, offset: 0x2309C, size: 0x8, addend: 0x0, symName: __ZNSt3__16vectorINS_12basic_stringIcNS_11char_traitsIcEENS_9allocatorIcEEEENS4_IS6_EEE21__push_back_slow_pathIRKS6_EEvOT_, symObjAddr: 0x6B40, symBinAddr: 0x100007E90, symSize: 0xE0 }
  - { offsetInCU: 0x230FA, offset: 0x230FA, size: 0x8, addend: 0x0, symName: __ZNSt3__117__compressed_pairIPNS_12basic_stringIcNS_11char_traitsIcEENS_9allocatorIcEEEENS4_IS6_EEE5firstB8ue170006Ev, symObjAddr: 0x6C20, symBinAddr: 0x100007F70, symSize: 0x20 }
  - { offsetInCU: 0x23120, offset: 0x23120, size: 0x8, addend: 0x0, symName: __ZNSt3__122__compressed_pair_elemIPNS_12basic_stringIcNS_11char_traitsIcEENS_9allocatorIcEEEELi0ELb0EE5__getB8ue170006Ev, symObjAddr: 0x6C40, symBinAddr: 0x100007F90, symSize: 0x10 }
  - { offsetInCU: 0x2315F, offset: 0x2315F, size: 0x8, addend: 0x0, symName: __ZNSt3__16vectorINS_12basic_stringIcNS_11char_traitsIcEENS_9allocatorIcEEEENS4_IS6_EEE21_ConstructTransactionC1B8ue170006ERS8_m, symObjAddr: 0x6C50, symBinAddr: 0x100007FA0, symSize: 0x30 }
  - { offsetInCU: 0x231A7, offset: 0x231A7, size: 0x8, addend: 0x0, symName: __ZNSt3__116allocator_traitsINS_9allocatorINS_12basic_stringIcNS_11char_traitsIcEENS1_IcEEEEEEE9constructB8ue170006IS6_JRKS6_EvEEvRS7_PT_DpOT0_, symObjAddr: 0x6C80, symBinAddr: 0x100007FD0, symSize: 0x30 }
  - { offsetInCU: 0x231FE, offset: 0x231FE, size: 0x8, addend: 0x0, symName: __ZNSt3__16vectorINS_12basic_stringIcNS_11char_traitsIcEENS_9allocatorIcEEEENS4_IS6_EEE7__allocB8ue170006Ev, symObjAddr: 0x6CB0, symBinAddr: 0x100008000, symSize: 0x20 }
  - { offsetInCU: 0x23224, offset: 0x23224, size: 0x8, addend: 0x0, symName: __ZNSt3__16vectorINS_12basic_stringIcNS_11char_traitsIcEENS_9allocatorIcEEEENS4_IS6_EEE21_ConstructTransactionD1B8ue170006Ev, symObjAddr: 0x6CE0, symBinAddr: 0x100008030, symSize: 0x20 }
  - { offsetInCU: 0x2324E, offset: 0x2324E, size: 0x8, addend: 0x0, symName: __ZNSt3__16vectorINS_12basic_stringIcNS_11char_traitsIcEENS_9allocatorIcEEEENS4_IS6_EEE21_ConstructTransactionC2B8ue170006ERS8_m, symObjAddr: 0x6D00, symBinAddr: 0x100008050, symSize: 0x40 }
  - { offsetInCU: 0x23296, offset: 0x23296, size: 0x8, addend: 0x0, symName: __ZNSt3__19allocatorINS_12basic_stringIcNS_11char_traitsIcEENS0_IcEEEEE9constructB8ue170006IS5_JRKS5_EEEvPT_DpOT0_, symObjAddr: 0x6D40, symBinAddr: 0x100008090, symSize: 0x30 }
  - { offsetInCU: 0x232EC, offset: 0x232EC, size: 0x8, addend: 0x0, symName: __ZNSt3__117__compressed_pairIPNS_12basic_stringIcNS_11char_traitsIcEENS_9allocatorIcEEEENS4_IS6_EEE6secondB8ue170006Ev, symObjAddr: 0x6D70, symBinAddr: 0x1000080C0, symSize: 0x20 }
  - { offsetInCU: 0x23312, offset: 0x23312, size: 0x8, addend: 0x0, symName: __ZNSt3__122__compressed_pair_elemINS_9allocatorINS_12basic_stringIcNS_11char_traitsIcEENS1_IcEEEEEELi1ELb1EE5__getB8ue170006Ev, symObjAddr: 0x6D90, symBinAddr: 0x1000080E0, symSize: 0x10 }
  - { offsetInCU: 0x23338, offset: 0x23338, size: 0x8, addend: 0x0, symName: __ZNSt3__16vectorINS_12basic_stringIcNS_11char_traitsIcEENS_9allocatorIcEEEENS4_IS6_EEE21_ConstructTransactionD2B8ue170006Ev, symObjAddr: 0x6DA0, symBinAddr: 0x1000080F0, symSize: 0x20 }
  - { offsetInCU: 0x23362, offset: 0x23362, size: 0x8, addend: 0x0, symName: __ZNKSt3__16vectorINS_12basic_stringIcNS_11char_traitsIcEENS_9allocatorIcEEEENS4_IS6_EEE11__recommendB8ue170006Em, symObjAddr: 0x6DC0, symBinAddr: 0x100008110, symSize: 0xA0 }
  - { offsetInCU: 0x233B7, offset: 0x233B7, size: 0x8, addend: 0x0, symName: __ZNSt3__114__split_bufferINS_12basic_stringIcNS_11char_traitsIcEENS_9allocatorIcEEEERNS4_IS6_EEEC1EmmS8_, symObjAddr: 0x6E60, symBinAddr: 0x1000081B0, symSize: 0x40 }
  - { offsetInCU: 0x2340D, offset: 0x2340D, size: 0x8, addend: 0x0, symName: __ZNSt3__114__split_bufferINS_12basic_stringIcNS_11char_traitsIcEENS_9allocatorIcEEEERNS4_IS6_EEED1Ev, symObjAddr: 0x6FC0, symBinAddr: 0x100008310, symSize: 0x20 }
  - { offsetInCU: 0x23439, offset: 0x23439, size: 0x8, addend: 0x0, symName: __ZNKSt3__16vectorINS_12basic_stringIcNS_11char_traitsIcEENS_9allocatorIcEEEENS4_IS6_EEE8max_sizeEv, symObjAddr: 0x6FE0, symBinAddr: 0x100008330, symSize: 0x70 }
  - { offsetInCU: 0x23461, offset: 0x23461, size: 0x8, addend: 0x0, symName: __ZNKSt3__16vectorINS_12basic_stringIcNS_11char_traitsIcEENS_9allocatorIcEEEENS4_IS6_EEE20__throw_length_errorB8ue170006Ev, symObjAddr: 0x7050, symBinAddr: 0x1000083A0, symSize: 0x20 }
  - { offsetInCU: 0x23487, offset: 0x23487, size: 0x8, addend: 0x0, symName: __ZNKSt3__16vectorINS_12basic_stringIcNS_11char_traitsIcEENS_9allocatorIcEEEENS4_IS6_EEE8capacityB8ue170006Ev, symObjAddr: 0x7070, symBinAddr: 0x1000083C0, symSize: 0x40 }
  - { offsetInCU: 0x234B7, offset: 0x234B7, size: 0x8, addend: 0x0, symName: __ZNSt3__116allocator_traitsINS_9allocatorINS_12basic_stringIcNS_11char_traitsIcEENS1_IcEEEEEEE8max_sizeB8ue170006IS7_vEEmRKS7_, symObjAddr: 0x7110, symBinAddr: 0x100008460, symSize: 0x20 }
  - { offsetInCU: 0x234E5, offset: 0x234E5, size: 0x8, addend: 0x0, symName: __ZNKSt3__16vectorINS_12basic_stringIcNS_11char_traitsIcEENS_9allocatorIcEEEENS4_IS6_EEE7__allocB8ue170006Ev, symObjAddr: 0x7130, symBinAddr: 0x100008480, symSize: 0x20 }
  - { offsetInCU: 0x2350B, offset: 0x2350B, size: 0x8, addend: 0x0, symName: __ZNSt3__114numeric_limitsIlE3maxB8ue170006Ev, symObjAddr: 0x7150, symBinAddr: 0x1000084A0, symSize: 0x10 }
  - { offsetInCU: 0x23529, offset: 0x23529, size: 0x8, addend: 0x0, symName: __ZNKSt3__16__lessIvvEclB8ue170006ImmEEbRKT_RKT0_, symObjAddr: 0x71B0, symBinAddr: 0x100008500, symSize: 0x30 }
  - { offsetInCU: 0x2357D, offset: 0x2357D, size: 0x8, addend: 0x0, symName: __ZNKSt3__19allocatorINS_12basic_stringIcNS_11char_traitsIcEENS0_IcEEEEE8max_sizeB8ue170006Ev, symObjAddr: 0x71E0, symBinAddr: 0x100008530, symSize: 0x20 }
  - { offsetInCU: 0x235A3, offset: 0x235A3, size: 0x8, addend: 0x0, symName: __ZNKSt3__117__compressed_pairIPNS_12basic_stringIcNS_11char_traitsIcEENS_9allocatorIcEEEENS4_IS6_EEE6secondB8ue170006Ev, symObjAddr: 0x7200, symBinAddr: 0x100008550, symSize: 0x20 }
  - { offsetInCU: 0x235C9, offset: 0x235C9, size: 0x8, addend: 0x0, symName: __ZNKSt3__122__compressed_pair_elemINS_9allocatorINS_12basic_stringIcNS_11char_traitsIcEENS1_IcEEEEEELi1ELb1EE5__getB8ue170006Ev, symObjAddr: 0x7220, symBinAddr: 0x100008570, symSize: 0x10 }
  - { offsetInCU: 0x235EF, offset: 0x235EF, size: 0x8, addend: 0x0, symName: __ZNSt3__123__libcpp_numeric_limitsIlLb1EE3maxB8ue170006Ev, symObjAddr: 0x7230, symBinAddr: 0x100008580, symSize: 0x10 }
  - { offsetInCU: 0x23603, offset: 0x23603, size: 0x8, addend: 0x0, symName: __ZNSt12length_errorC1B8ue170006EPKc, symObjAddr: 0x72B0, symBinAddr: 0x100008600, symSize: 0x30 }
  - { offsetInCU: 0x2363B, offset: 0x2363B, size: 0x8, addend: 0x0, symName: __ZNSt12length_errorC2B8ue170006EPKc, symObjAddr: 0x72E0, symBinAddr: 0x100008630, symSize: 0x40 }
  - { offsetInCU: 0x23673, offset: 0x23673, size: 0x8, addend: 0x0, symName: __ZNKSt3__16vectorINS_12basic_stringIcNS_11char_traitsIcEENS_9allocatorIcEEEENS4_IS6_EEE9__end_capB8ue170006Ev, symObjAddr: 0x7320, symBinAddr: 0x100008670, symSize: 0x20 }
  - { offsetInCU: 0x23699, offset: 0x23699, size: 0x8, addend: 0x0, symName: __ZNKSt3__117__compressed_pairIPNS_12basic_stringIcNS_11char_traitsIcEENS_9allocatorIcEEEENS4_IS6_EEE5firstB8ue170006Ev, symObjAddr: 0x7340, symBinAddr: 0x100008690, symSize: 0x20 }
  - { offsetInCU: 0x236BF, offset: 0x236BF, size: 0x8, addend: 0x0, symName: __ZNKSt3__122__compressed_pair_elemIPNS_12basic_stringIcNS_11char_traitsIcEENS_9allocatorIcEEEELi0ELb0EE5__getB8ue170006Ev, symObjAddr: 0x7360, symBinAddr: 0x1000086B0, symSize: 0x10 }
  - { offsetInCU: 0x236E5, offset: 0x236E5, size: 0x8, addend: 0x0, symName: __ZNSt3__114__split_bufferINS_12basic_stringIcNS_11char_traitsIcEENS_9allocatorIcEEEERNS4_IS6_EEEC2EmmS8_, symObjAddr: 0x73C0, symBinAddr: 0x100008710, symSize: 0xC0 }
  - { offsetInCU: 0x2375D, offset: 0x2375D, size: 0x8, addend: 0x0, symName: __ZNSt3__117__compressed_pairIPNS_12basic_stringIcNS_11char_traitsIcEENS_9allocatorIcEEEERNS4_IS6_EEEC1B8ue170006IDnS9_EEOT_OT0_, symObjAddr: 0x7480, symBinAddr: 0x1000087D0, symSize: 0x30 }
  - { offsetInCU: 0x237B5, offset: 0x237B5, size: 0x8, addend: 0x0, symName: __ZNSt3__114__split_bufferINS_12basic_stringIcNS_11char_traitsIcEENS_9allocatorIcEEEERNS4_IS6_EEE7__allocB8ue170006Ev, symObjAddr: 0x74F0, symBinAddr: 0x100008840, symSize: 0x20 }
  - { offsetInCU: 0x237DB, offset: 0x237DB, size: 0x8, addend: 0x0, symName: __ZNSt3__114__split_bufferINS_12basic_stringIcNS_11char_traitsIcEENS_9allocatorIcEEEERNS4_IS6_EEE9__end_capB8ue170006Ev, symObjAddr: 0x7510, symBinAddr: 0x100008860, symSize: 0x20 }
  - { offsetInCU: 0x23801, offset: 0x23801, size: 0x8, addend: 0x0, symName: __ZNSt3__117__compressed_pairIPNS_12basic_stringIcNS_11char_traitsIcEENS_9allocatorIcEEEERNS4_IS6_EEEC2B8ue170006IDnS9_EEOT_OT0_, symObjAddr: 0x7530, symBinAddr: 0x100008880, symSize: 0x40 }
  - { offsetInCU: 0x23859, offset: 0x23859, size: 0x8, addend: 0x0, symName: __ZNSt3__122__compressed_pair_elemIPNS_12basic_stringIcNS_11char_traitsIcEENS_9allocatorIcEEEELi0ELb0EEC2B8ue170006IDnvEEOT_, symObjAddr: 0x7570, symBinAddr: 0x1000088C0, symSize: 0x20 }
  - { offsetInCU: 0x2389B, offset: 0x2389B, size: 0x8, addend: 0x0, symName: __ZNSt3__122__compressed_pair_elemIRNS_9allocatorINS_12basic_stringIcNS_11char_traitsIcEENS1_IcEEEEEELi1ELb0EEC2B8ue170006IS8_vEEOT_, symObjAddr: 0x7590, symBinAddr: 0x1000088E0, symSize: 0x20 }
  - { offsetInCU: 0x238DD, offset: 0x238DD, size: 0x8, addend: 0x0, symName: __ZNSt3__19allocatorINS_12basic_stringIcNS_11char_traitsIcEENS0_IcEEEEE8allocateB8ue170006Em, symObjAddr: 0x75B0, symBinAddr: 0x100008900, symSize: 0x80 }
  - { offsetInCU: 0x23911, offset: 0x23911, size: 0x8, addend: 0x0, symName: __ZNSt3__117__compressed_pairIPNS_12basic_stringIcNS_11char_traitsIcEENS_9allocatorIcEEEERNS4_IS6_EEE6secondB8ue170006Ev, symObjAddr: 0x7630, symBinAddr: 0x100008980, symSize: 0x20 }
  - { offsetInCU: 0x23937, offset: 0x23937, size: 0x8, addend: 0x0, symName: __ZNSt3__122__compressed_pair_elemIRNS_9allocatorINS_12basic_stringIcNS_11char_traitsIcEENS1_IcEEEEEELi1ELb0EE5__getB8ue170006Ev, symObjAddr: 0x7650, symBinAddr: 0x1000089A0, symSize: 0x20 }
  - { offsetInCU: 0x2395D, offset: 0x2395D, size: 0x8, addend: 0x0, symName: __ZNSt3__117__compressed_pairIPNS_12basic_stringIcNS_11char_traitsIcEENS_9allocatorIcEEEERNS4_IS6_EEE5firstB8ue170006Ev, symObjAddr: 0x7670, symBinAddr: 0x1000089C0, symSize: 0x20 }
  - { offsetInCU: 0x23983, offset: 0x23983, size: 0x8, addend: 0x0, symName: __ZNKSt3__16vectorINS_12basic_stringIcNS_11char_traitsIcEENS_9allocatorIcEEEENS4_IS6_EEE17__annotate_deleteB8ue170006Ev, symObjAddr: 0x7690, symBinAddr: 0x1000089E0, symSize: 0xB0 }
  - { offsetInCU: 0x239A9, offset: 0x239A9, size: 0x8, addend: 0x0, symName: __ZNSt3__116reverse_iteratorIPNS_12basic_stringIcNS_11char_traitsIcEENS_9allocatorIcEEEEEC1B8ue170006ES7_, symObjAddr: 0x78D0, symBinAddr: 0x100008C20, symSize: 0x30 }
  - { offsetInCU: 0x239E1, offset: 0x239E1, size: 0x8, addend: 0x0, symName: __ZNKSt3__116reverse_iteratorIPNS_12basic_stringIcNS_11char_traitsIcEENS_9allocatorIcEEEEE4baseB8ue170006Ev, symObjAddr: 0x7900, symBinAddr: 0x100008C50, symSize: 0x20 }
  - { offsetInCU: 0x23A07, offset: 0x23A07, size: 0x8, addend: 0x0, symName: __ZNKSt3__16vectorINS_12basic_stringIcNS_11char_traitsIcEENS_9allocatorIcEEEENS4_IS6_EEE14__annotate_newB8ue170006Em, symObjAddr: 0x7960, symBinAddr: 0x100008CB0, symSize: 0xA0 }
  - { offsetInCU: 0x23A3C, offset: 0x23A3C, size: 0x8, addend: 0x0, symName: __ZNKSt3__16vectorINS_12basic_stringIcNS_11char_traitsIcEENS_9allocatorIcEEEENS4_IS6_EEE31__annotate_contiguous_containerB8ue170006EPKvSA_SA_SA_, symObjAddr: 0x7A00, symBinAddr: 0x100008D50, symSize: 0x20 }
  - { offsetInCU: 0x23A8E, offset: 0x23A8E, size: 0x8, addend: 0x0, symName: __ZNKSt3__16vectorINS_12basic_stringIcNS_11char_traitsIcEENS_9allocatorIcEEEENS4_IS6_EEE4dataB8ue170006Ev, symObjAddr: 0x7A20, symBinAddr: 0x100008D70, symSize: 0x20 }
  - { offsetInCU: 0x23AB4, offset: 0x23AB4, size: 0x8, addend: 0x0, symName: __ZNSt3__129_AllocatorDestroyRangeReverseINS_9allocatorINS_12basic_stringIcNS_11char_traitsIcEENS1_IcEEEEEENS_16reverse_iteratorIPS6_EEEC1B8ue170006ERS7_RSA_SD_, symObjAddr: 0x7AA0, symBinAddr: 0x100008DF0, symSize: 0x40 }
  - { offsetInCU: 0x23B0B, offset: 0x23B0B, size: 0x8, addend: 0x0, symName: __ZNKSt3__116reverse_iteratorIPNS_12basic_stringIcNS_11char_traitsIcEENS_9allocatorIcEEEEEdeB8ue170006Ev, symObjAddr: 0x7B40, symBinAddr: 0x100008E90, symSize: 0x30 }
  - { offsetInCU: 0x23B3F, offset: 0x23B3F, size: 0x8, addend: 0x0, symName: __ZNSt3__116reverse_iteratorIPNS_12basic_stringIcNS_11char_traitsIcEENS_9allocatorIcEEEEEppB8ue170006Ev, symObjAddr: 0x7B70, symBinAddr: 0x100008EC0, symSize: 0x20 }
  - { offsetInCU: 0x23B65, offset: 0x23B65, size: 0x8, addend: 0x0, symName: __ZNSt3__128__exception_guard_exceptionsINS_29_AllocatorDestroyRangeReverseINS_9allocatorINS_12basic_stringIcNS_11char_traitsIcEENS2_IcEEEEEENS_16reverse_iteratorIPS7_EEEEE10__completeB8ue170006Ev, symObjAddr: 0x7B90, symBinAddr: 0x100008EE0, symSize: 0x20 }
  - { offsetInCU: 0x23B8B, offset: 0x23B8B, size: 0x8, addend: 0x0, symName: __ZNSt3__128__exception_guard_exceptionsINS_29_AllocatorDestroyRangeReverseINS_9allocatorINS_12basic_stringIcNS_11char_traitsIcEENS2_IcEEEEEENS_16reverse_iteratorIPS7_EEEEED1B8ue170006Ev, symObjAddr: 0x7BB0, symBinAddr: 0x100008F00, symSize: 0x20 }
  - { offsetInCU: 0x23BB5, offset: 0x23BB5, size: 0x8, addend: 0x0, symName: __ZNSt3__128__exception_guard_exceptionsINS_29_AllocatorDestroyRangeReverseINS_9allocatorINS_12basic_stringIcNS_11char_traitsIcEENS2_IcEEEEEENS_16reverse_iteratorIPS7_EEEEEC1B8ue170006ESC_, symObjAddr: 0x7BD0, symBinAddr: 0x100008F20, symSize: 0x40 }
  - { offsetInCU: 0x23BED, offset: 0x23BED, size: 0x8, addend: 0x0, symName: __ZNSt3__128__exception_guard_exceptionsINS_29_AllocatorDestroyRangeReverseINS_9allocatorINS_12basic_stringIcNS_11char_traitsIcEENS2_IcEEEEEENS_16reverse_iteratorIPS7_EEEEEC2B8ue170006ESC_, symObjAddr: 0x7C10, symBinAddr: 0x100008F60, symSize: 0x30 }
  - { offsetInCU: 0x23C25, offset: 0x23C25, size: 0x8, addend: 0x0, symName: __ZNSt3__129_AllocatorDestroyRangeReverseINS_9allocatorINS_12basic_stringIcNS_11char_traitsIcEENS1_IcEEEEEENS_16reverse_iteratorIPS6_EEEC2B8ue170006ERS7_RSA_SD_, symObjAddr: 0x7C40, symBinAddr: 0x100008F90, symSize: 0x40 }
  - { offsetInCU: 0x23C81, offset: 0x23C81, size: 0x8, addend: 0x0, symName: __ZNSt3__119__to_address_helperINS_16reverse_iteratorIPNS_12basic_stringIcNS_11char_traitsIcEENS_9allocatorIcEEEEEEvE6__callB8ue170006ERKS9_, symObjAddr: 0x7C80, symBinAddr: 0x100008FD0, symSize: 0x50 }
  - { offsetInCU: 0x23CA4, offset: 0x23CA4, size: 0x8, addend: 0x0, symName: __ZNKSt3__116reverse_iteratorIPNS_12basic_stringIcNS_11char_traitsIcEENS_9allocatorIcEEEEEptB8ue170006Ev, symObjAddr: 0x7CD0, symBinAddr: 0x100009020, symSize: 0x20 }
  - { offsetInCU: 0x23CCA, offset: 0x23CCA, size: 0x8, addend: 0x0, symName: __ZNSt3__128__exception_guard_exceptionsINS_29_AllocatorDestroyRangeReverseINS_9allocatorINS_12basic_stringIcNS_11char_traitsIcEENS2_IcEEEEEENS_16reverse_iteratorIPS7_EEEEED2B8ue170006Ev, symObjAddr: 0x7CF0, symBinAddr: 0x100009040, symSize: 0x30 }
  - { offsetInCU: 0x23CF4, offset: 0x23CF4, size: 0x8, addend: 0x0, symName: __ZNKSt3__129_AllocatorDestroyRangeReverseINS_9allocatorINS_12basic_stringIcNS_11char_traitsIcEENS1_IcEEEEEENS_16reverse_iteratorIPS6_EEEclB8ue170006Ev, symObjAddr: 0x7D20, symBinAddr: 0x100009070, symSize: 0xF0 }
  - { offsetInCU: 0x23D1B, offset: 0x23D1B, size: 0x8, addend: 0x0, symName: __ZNSt3__116reverse_iteratorINS0_IPNS_12basic_stringIcNS_11char_traitsIcEENS_9allocatorIcEEEEEEEC1B8ue170006ES8_, symObjAddr: 0x7E80, symBinAddr: 0x1000091D0, symSize: 0x30 }
  - { offsetInCU: 0x23D53, offset: 0x23D53, size: 0x8, addend: 0x0, symName: __ZNSt3__116allocator_traitsINS_9allocatorINS_12basic_stringIcNS_11char_traitsIcEENS1_IcEEEEEEE7destroyB8ue170006IS6_vEEvRS7_PT_, symObjAddr: 0x7F00, symBinAddr: 0x100009250, symSize: 0x30 }
  - { offsetInCU: 0x23D90, offset: 0x23D90, size: 0x8, addend: 0x0, symName: __ZNSt3__116reverse_iteratorINS0_IPNS_12basic_stringIcNS_11char_traitsIcEENS_9allocatorIcEEEEEEEppB8ue170006Ev, symObjAddr: 0x7F50, symBinAddr: 0x1000092A0, symSize: 0x30 }
  - { offsetInCU: 0x23DB6, offset: 0x23DB6, size: 0x8, addend: 0x0, symName: __ZNKSt3__116reverse_iteratorINS0_IPNS_12basic_stringIcNS_11char_traitsIcEENS_9allocatorIcEEEEEEE4baseB8ue170006Ev, symObjAddr: 0x7F80, symBinAddr: 0x1000092D0, symSize: 0x20 }
  - { offsetInCU: 0x23DDC, offset: 0x23DDC, size: 0x8, addend: 0x0, symName: __ZNSt3__19allocatorINS_12basic_stringIcNS_11char_traitsIcEENS0_IcEEEEE7destroyB8ue170006EPS5_, symObjAddr: 0x7FA0, symBinAddr: 0x1000092F0, symSize: 0x20 }
  - { offsetInCU: 0x23E15, offset: 0x23E15, size: 0x8, addend: 0x0, symName: __ZNSt3__119__to_address_helperINS_16reverse_iteratorINS1_IPNS_12basic_stringIcNS_11char_traitsIcEENS_9allocatorIcEEEEEEEEvE6__callB8ue170006ERKSA_, symObjAddr: 0x7FC0, symBinAddr: 0x100009310, symSize: 0x50 }
  - { offsetInCU: 0x23E38, offset: 0x23E38, size: 0x8, addend: 0x0, symName: __ZNKSt3__116reverse_iteratorINS0_IPNS_12basic_stringIcNS_11char_traitsIcEENS_9allocatorIcEEEEEEEptB8ue170006Ev, symObjAddr: 0x8010, symBinAddr: 0x100009360, symSize: 0x20 }
  - { offsetInCU: 0x23E5E, offset: 0x23E5E, size: 0x8, addend: 0x0, symName: __ZNKSt3__116reverse_iteratorINS0_IPNS_12basic_stringIcNS_11char_traitsIcEENS_9allocatorIcEEEEEEEdeB8ue170006Ev, symObjAddr: 0x8030, symBinAddr: 0x100009380, symSize: 0x40 }
  - { offsetInCU: 0x23E92, offset: 0x23E92, size: 0x8, addend: 0x0, symName: __ZNSt3__116reverse_iteratorIPNS_12basic_stringIcNS_11char_traitsIcEENS_9allocatorIcEEEEEmmB8ue170006Ev, symObjAddr: 0x8070, symBinAddr: 0x1000093C0, symSize: 0x20 }
  - { offsetInCU: 0x23EB8, offset: 0x23EB8, size: 0x8, addend: 0x0, symName: __ZNSt3__116reverse_iteratorINS0_IPNS_12basic_stringIcNS_11char_traitsIcEENS_9allocatorIcEEEEEEEC2B8ue170006ES8_, symObjAddr: 0x8090, symBinAddr: 0x1000093E0, symSize: 0x40 }
  - { offsetInCU: 0x23EF0, offset: 0x23EF0, size: 0x8, addend: 0x0, symName: __ZNSt3__116reverse_iteratorIPNS_12basic_stringIcNS_11char_traitsIcEENS_9allocatorIcEEEEEC2B8ue170006ES7_, symObjAddr: 0x80D0, symBinAddr: 0x100009420, symSize: 0x30 }
  - { offsetInCU: 0x23F28, offset: 0x23F28, size: 0x8, addend: 0x0, symName: __ZNSt3__114__split_bufferINS_12basic_stringIcNS_11char_traitsIcEENS_9allocatorIcEEEERNS4_IS6_EEED2Ev, symObjAddr: 0x8100, symBinAddr: 0x100009450, symSize: 0x60 }
  - { offsetInCU: 0x23F54, offset: 0x23F54, size: 0x8, addend: 0x0, symName: __ZNSt3__114__split_bufferINS_12basic_stringIcNS_11char_traitsIcEENS_9allocatorIcEEEERNS4_IS6_EEE5clearB8ue170006Ev, symObjAddr: 0x8160, symBinAddr: 0x1000094B0, symSize: 0x20 }
  - { offsetInCU: 0x23F7A, offset: 0x23F7A, size: 0x8, addend: 0x0, symName: __ZNSt3__116allocator_traitsINS_9allocatorINS_12basic_stringIcNS_11char_traitsIcEENS1_IcEEEEEEE10deallocateB8ue170006ERS7_PS6_m, symObjAddr: 0x8180, symBinAddr: 0x1000094D0, symSize: 0x30 }
  - { offsetInCU: 0x23FBC, offset: 0x23FBC, size: 0x8, addend: 0x0, symName: __ZNKSt3__114__split_bufferINS_12basic_stringIcNS_11char_traitsIcEENS_9allocatorIcEEEERNS4_IS6_EEE8capacityB8ue170006Ev, symObjAddr: 0x81B0, symBinAddr: 0x100009500, symSize: 0x40 }
  - { offsetInCU: 0x23FE2, offset: 0x23FE2, size: 0x8, addend: 0x0, symName: __ZNSt3__114__split_bufferINS_12basic_stringIcNS_11char_traitsIcEENS_9allocatorIcEEEERNS4_IS6_EEE17__destruct_at_endB8ue170006EPS6_, symObjAddr: 0x81F0, symBinAddr: 0x100009540, symSize: 0x30 }
  - { offsetInCU: 0x24016, offset: 0x24016, size: 0x8, addend: 0x0, symName: __ZNSt3__114__split_bufferINS_12basic_stringIcNS_11char_traitsIcEENS_9allocatorIcEEEERNS4_IS6_EEE17__destruct_at_endB8ue170006EPS6_NS_17integral_constantIbLb0EEE, symObjAddr: 0x8220, symBinAddr: 0x100009570, symSize: 0x80 }
  - { offsetInCU: 0x24056, offset: 0x24056, size: 0x8, addend: 0x0, symName: __ZNSt3__19allocatorINS_12basic_stringIcNS_11char_traitsIcEENS0_IcEEEEE10deallocateB8ue170006EPS5_m, symObjAddr: 0x82A0, symBinAddr: 0x1000095F0, symSize: 0x80 }
  - { offsetInCU: 0x24098, offset: 0x24098, size: 0x8, addend: 0x0, symName: __ZNKSt3__114__split_bufferINS_12basic_stringIcNS_11char_traitsIcEENS_9allocatorIcEEEERNS4_IS6_EEE9__end_capB8ue170006Ev, symObjAddr: 0x8390, symBinAddr: 0x1000096E0, symSize: 0x20 }
  - { offsetInCU: 0x240BE, offset: 0x240BE, size: 0x8, addend: 0x0, symName: __ZNKSt3__117__compressed_pairIPNS_12basic_stringIcNS_11char_traitsIcEENS_9allocatorIcEEEERNS4_IS6_EEE5firstB8ue170006Ev, symObjAddr: 0x83B0, symBinAddr: 0x100009700, symSize: 0x20 }
  - { offsetInCU: 0x240E4, offset: 0x240E4, size: 0x8, addend: 0x0, symName: __ZNKSt3__16vectorINS_12basic_stringIcNS_11char_traitsIcEENS_9allocatorIcEEEENS4_IS6_EEE11__make_iterB8ue170006EPKS6_, symObjAddr: 0x83D0, symBinAddr: 0x100009720, symSize: 0x30 }
  - { offsetInCU: 0x24119, offset: 0x24119, size: 0x8, addend: 0x0, symName: __ZNSt3__111__wrap_iterIPKNS_12basic_stringIcNS_11char_traitsIcEENS_9allocatorIcEEEEEC1B8ue170006ES8_, symObjAddr: 0x8400, symBinAddr: 0x100009750, symSize: 0x30 }
  - { offsetInCU: 0x24151, offset: 0x24151, size: 0x8, addend: 0x0, symName: __ZNSt3__111__wrap_iterIPKNS_12basic_stringIcNS_11char_traitsIcEENS_9allocatorIcEEEEEC2B8ue170006ES8_, symObjAddr: 0x8430, symBinAddr: 0x100009780, symSize: 0x20 }
  - { offsetInCU: 0x24189, offset: 0x24189, size: 0x8, addend: 0x0, symName: __ZNKSt3__111__wrap_iterIPKNS_12basic_stringIcNS_11char_traitsIcEENS_9allocatorIcEEEEE4baseB8ue170006Ev, symObjAddr: 0x8490, symBinAddr: 0x1000097E0, symSize: 0x20 }
  - { offsetInCU: 0x241AF, offset: 0x241AF, size: 0x8, addend: 0x0, symName: __ZNSt3__111char_traitsIcE7compareB8ue170006EPKcS3_m, symObjAddr: 0x84B0, symBinAddr: 0x100009800, symSize: 0x60 }
  - { offsetInCU: 0x241EE, offset: 0x241EE, size: 0x8, addend: 0x0, symName: __ZNKSt3__112basic_stringIcNS_11char_traitsIcEENS_9allocatorIcEEE21__make_const_iteratorB8ue170006EPKc, symObjAddr: 0x8510, symBinAddr: 0x100009860, symSize: 0x30 }
  - { offsetInCU: 0x24223, offset: 0x24223, size: 0x8, addend: 0x0, symName: __ZNSt3__111__wrap_iterIPKcEC1B8ue170006ES2_, symObjAddr: 0x8540, symBinAddr: 0x100009890, symSize: 0x30 }
  - { offsetInCU: 0x2425B, offset: 0x2425B, size: 0x8, addend: 0x0, symName: __ZNSt3__111__wrap_iterIPKcEC2B8ue170006ES2_, symObjAddr: 0x8570, symBinAddr: 0x1000098C0, symSize: 0x20 }
  - { offsetInCU: 0x24293, offset: 0x24293, size: 0x8, addend: 0x0, symName: __ZNKSt3__16vectorIcNS_9allocatorIcEEE11__make_iterB8ue170006EPKc, symObjAddr: 0x8590, symBinAddr: 0x1000098E0, symSize: 0x30 }
  - { offsetInCU: 0x242C8, offset: 0x242C8, size: 0x8, addend: 0x0, symName: __ZNSt3__118__unwrap_iter_implINS_11__wrap_iterIPKcEELb1EE8__rewrapB8ue170006ES4_S3_, symObjAddr: 0x86C0, symBinAddr: 0x100009A10, symSize: 0x40 }
  - { offsetInCU: 0x242F9, offset: 0x242F9, size: 0x8, addend: 0x0, symName: __ZNKSt3__111__wrap_iterIPKcEplB8ue170006El, symObjAddr: 0x8700, symBinAddr: 0x100009A50, symSize: 0x40 }
  - { offsetInCU: 0x2433B, offset: 0x2433B, size: 0x8, addend: 0x0, symName: __ZNSt3__111__wrap_iterIPKcEpLB8ue170006El, symObjAddr: 0x8760, symBinAddr: 0x100009AB0, symSize: 0x20 }
  - { offsetInCU: 0x24379, offset: 0x24379, size: 0x8, addend: 0x0, symName: __ZNSt3__119__to_address_helperINS_11__wrap_iterIPKcEEvE6__callB8ue170006ERKS4_, symObjAddr: 0x8780, symBinAddr: 0x100009AD0, symSize: 0x30 }
  - { offsetInCU: 0x2439C, offset: 0x2439C, size: 0x8, addend: 0x0, symName: __ZNSt3__114pointer_traitsINS_11__wrap_iterIPKcEEE10to_addressB8ue170006ES4_, symObjAddr: 0x87B0, symBinAddr: 0x100009B00, symSize: 0x30 }
  - { offsetInCU: 0x243BF, offset: 0x243BF, size: 0x8, addend: 0x0, symName: __ZNKSt3__111__wrap_iterIPKcE4baseB8ue170006Ev, symObjAddr: 0x87E0, symBinAddr: 0x100009B30, symSize: 0x20 }
  - { offsetInCU: 0x243E5, offset: 0x243E5, size: 0x8, addend: 0x0, symName: __ZNSt3__118__unwrap_iter_implINS_11__wrap_iterIPKcEELb1EE8__unwrapB8ue170006ES4_, symObjAddr: 0x88B0, symBinAddr: 0x100009C00, symSize: 0x20 }
  - { offsetInCU: 0x24408, offset: 0x24408, size: 0x8, addend: 0x0, symName: __ZNKSt3__112basic_stringIcNS_11char_traitsIcEENS_9allocatorIcEEE15__get_long_sizeB8ue170006Ev, symObjAddr: 0x88D0, symBinAddr: 0x100009C20, symSize: 0x20 }
  - { offsetInCU: 0x2442E, offset: 0x2442E, size: 0x8, addend: 0x0, symName: __ZNKSt3__112basic_stringIcNS_11char_traitsIcEENS_9allocatorIcEEE16__get_short_sizeB8ue170006Ev, symObjAddr: 0x88F0, symBinAddr: 0x100009C40, symSize: 0x30 }
  - { offsetInCU: 0x24454, offset: 0x24454, size: 0x8, addend: 0x0, symName: __ZNKSt3__16vectorIbNS_9allocatorIbEEE11__make_iterB8ue170006Em, symObjAddr: 0x8920, symBinAddr: 0x100009C70, symSize: 0x50 }
  - { offsetInCU: 0x24489, offset: 0x24489, size: 0x8, addend: 0x0, symName: __ZNSt3__114__bit_iteratorINS_6vectorIbNS_9allocatorIbEEEELb1ELm0EEC1B8ue170006EPKmj, symObjAddr: 0x8970, symBinAddr: 0x100009CC0, symSize: 0x30 }
  - { offsetInCU: 0x244D1, offset: 0x244D1, size: 0x8, addend: 0x0, symName: __ZNSt3__114__bit_iteratorINS_6vectorIbNS_9allocatorIbEEEELb1ELm0EEC2B8ue170006EPKmj, symObjAddr: 0x89A0, symBinAddr: 0x100009CF0, symSize: 0x30 }
  - { offsetInCU: 0x24519, offset: 0x24519, size: 0x8, addend: 0x0, symName: __ZNSt3__121__bit_const_referenceINS_6vectorIbNS_9allocatorIbEEEEEC1B8ue170006EPKmm, symObjAddr: 0x8A20, symBinAddr: 0x100009D70, symSize: 0x30 }
  - { offsetInCU: 0x2455F, offset: 0x2455F, size: 0x8, addend: 0x0, symName: __ZNSt3__121__bit_const_referenceINS_6vectorIbNS_9allocatorIbEEEEEC2B8ue170006EPKmm, symObjAddr: 0x8A50, symBinAddr: 0x100009DA0, symSize: 0x30 }
  - { offsetInCU: 0x245A5, offset: 0x245A5, size: 0x8, addend: 0x0, symName: __ZNSt3__16vectorINS_12basic_stringIcNS_11char_traitsIcEENS_9allocatorIcEEEENS4_IS6_EEEC2B8ue170006Ev, symObjAddr: 0x8A80, symBinAddr: 0x100009DD0, symSize: 0x40 }
  - { offsetInCU: 0x245CF, offset: 0x245CF, size: 0x8, addend: 0x0, symName: __ZNSt3__117__compressed_pairIPNS_12basic_stringIcNS_11char_traitsIcEENS_9allocatorIcEEEENS4_IS6_EEEC1B8ue170006IDnNS_18__default_init_tagEEEOT_OT0_, symObjAddr: 0x8AC0, symBinAddr: 0x100009E10, symSize: 0x30 }
  - { offsetInCU: 0x24627, offset: 0x24627, size: 0x8, addend: 0x0, symName: __ZNSt3__117__compressed_pairIPNS_12basic_stringIcNS_11char_traitsIcEENS_9allocatorIcEEEENS4_IS6_EEEC2B8ue170006IDnNS_18__default_init_tagEEEOT_OT0_, symObjAddr: 0x8AF0, symBinAddr: 0x100009E40, symSize: 0x40 }
  - { offsetInCU: 0x2467F, offset: 0x2467F, size: 0x8, addend: 0x0, symName: __ZNSt3__122__compressed_pair_elemINS_9allocatorINS_12basic_stringIcNS_11char_traitsIcEENS1_IcEEEEEELi1ELb1EEC2B8ue170006ENS_18__default_init_tagE, symObjAddr: 0x8B30, symBinAddr: 0x100009E80, symSize: 0x20 }
  - { offsetInCU: 0x246B3, offset: 0x246B3, size: 0x8, addend: 0x0, symName: __ZNSt3__19allocatorINS_12basic_stringIcNS_11char_traitsIcEENS0_IcEEEEEC2B8ue170006Ev, symObjAddr: 0x8B50, symBinAddr: 0x100009EA0, symSize: 0x20 }
  - { offsetInCU: 0x246DD, offset: 0x246DD, size: 0x8, addend: 0x0, symName: __ZNSt3__116__non_trivial_ifILb1ENS_9allocatorINS_12basic_stringIcNS_11char_traitsIcEENS1_IcEEEEEEEC2B8ue170006Ev, symObjAddr: 0x8B70, symBinAddr: 0x100009EC0, symSize: 0x10 }
  - { offsetInCU: 0x24707, offset: 0x24707, size: 0x8, addend: 0x0, symName: __ZNSt3__16vectorINS_12basic_stringIcNS_11char_traitsIcEENS_9allocatorIcEEEENS4_IS6_EEED2B8ue170006Ev, symObjAddr: 0x8B80, symBinAddr: 0x100009ED0, symSize: 0x30 }
  - { offsetInCU: 0x24731, offset: 0x24731, size: 0x8, addend: 0x0, symName: __ZNSt3__16vectorINS_12basic_stringIcNS_11char_traitsIcEENS_9allocatorIcEEEENS4_IS6_EEE16__destroy_vectorC1B8ue170006ERS8_, symObjAddr: 0x8BB0, symBinAddr: 0x100009F00, symSize: 0x30 }
  - { offsetInCU: 0x2476A, offset: 0x2476A, size: 0x8, addend: 0x0, symName: __ZNSt3__16vectorINS_12basic_stringIcNS_11char_traitsIcEENS_9allocatorIcEEEENS4_IS6_EEE16__destroy_vectorclB8ue170006Ev, symObjAddr: 0x8BE0, symBinAddr: 0x100009F30, symSize: 0x80 }
  - { offsetInCU: 0x24790, offset: 0x24790, size: 0x8, addend: 0x0, symName: __ZNSt3__16vectorINS_12basic_stringIcNS_11char_traitsIcEENS_9allocatorIcEEEENS4_IS6_EEE16__destroy_vectorC2B8ue170006ERS8_, symObjAddr: 0x8C60, symBinAddr: 0x100009FB0, symSize: 0x20 }
  - { offsetInCU: 0x247C9, offset: 0x247C9, size: 0x8, addend: 0x0, symName: __ZNSt3__16vectorINS_12basic_stringIcNS_11char_traitsIcEENS_9allocatorIcEEEENS4_IS6_EEE7__clearB8ue170006Ev, symObjAddr: 0x8C80, symBinAddr: 0x100009FD0, symSize: 0x20 }
  - { offsetInCU: 0x247EF, offset: 0x247EF, size: 0x8, addend: 0x0, symName: __ZNSt3__16vectorINS_12basic_stringIcNS_11char_traitsIcEENS_9allocatorIcEEEENS4_IS6_EEE22__base_destruct_at_endB8ue170006EPS6_, symObjAddr: 0x8CA0, symBinAddr: 0x100009FF0, symSize: 0x90 }
  - { offsetInCU: 0x24838, offset: 0x24838, size: 0x8, addend: 0x0, symName: __ZNSt3__16vectorINS_12basic_stringIcNS_11char_traitsIcEENS_9allocatorIcEEEENS4_IS6_EEE22__construct_one_at_endB8ue170006IJS6_EEEvDpOT_, symObjAddr: 0x8D30, symBinAddr: 0x10000A080, symSize: 0xA0 }
  - { offsetInCU: 0x24887, offset: 0x24887, size: 0x8, addend: 0x0, symName: __ZNSt3__16vectorINS_12basic_stringIcNS_11char_traitsIcEENS_9allocatorIcEEEENS4_IS6_EEE21__push_back_slow_pathIS6_EEvOT_, symObjAddr: 0x8DD0, symBinAddr: 0x10000A120, symSize: 0xE0 }
  - { offsetInCU: 0x248E5, offset: 0x248E5, size: 0x8, addend: 0x0, symName: __ZNSt3__116allocator_traitsINS_9allocatorINS_12basic_stringIcNS_11char_traitsIcEENS1_IcEEEEEEE9constructB8ue170006IS6_JS6_EvEEvRS7_PT_DpOT0_, symObjAddr: 0x8EB0, symBinAddr: 0x10000A200, symSize: 0x30 }
  - { offsetInCU: 0x2493C, offset: 0x2493C, size: 0x8, addend: 0x0, symName: __ZNSt3__19allocatorINS_12basic_stringIcNS_11char_traitsIcEENS0_IcEEEEE9constructB8ue170006IS5_JS5_EEEvPT_DpOT0_, symObjAddr: 0x8EE0, symBinAddr: 0x10000A230, symSize: 0x30 }
  - { offsetInCU: 0x24992, offset: 0x24992, size: 0x8, addend: 0x0, symName: __ZNSt3__112basic_stringIcNS_11char_traitsIcEENS_9allocatorIcEEEC2B8ue170006ILi0EEEPKc, symObjAddr: 0x8F10, symBinAddr: 0x10000A260, symSize: 0x50 }
  - { offsetInCU: 0x249D1, offset: 0x249D1, size: 0x8, addend: 0x0, symName: __ZNSt3__16vectorIiNS_9allocatorIiEEEC2EmRKi, symObjAddr: 0x8F60, symBinAddr: 0x10000A2B0, symSize: 0xE0 }
  - { offsetInCU: 0x24A30, offset: 0x24A30, size: 0x8, addend: 0x0, symName: __ZNSt3__117__compressed_pairIPiNS_9allocatorIiEEEC1B8ue170006IDnNS_18__default_init_tagEEEOT_OT0_, symObjAddr: 0x9040, symBinAddr: 0x10000A390, symSize: 0x30 }
  - { offsetInCU: 0x24A88, offset: 0x24A88, size: 0x8, addend: 0x0, symName: __ZNSt3__16vectorIiNS_9allocatorIiEEE16__destroy_vectorC1B8ue170006ERS3_, symObjAddr: 0x90B0, symBinAddr: 0x10000A400, symSize: 0x30 }
  - { offsetInCU: 0x24AC1, offset: 0x24AC1, size: 0x8, addend: 0x0, symName: __ZNSt3__16vectorIiNS_9allocatorIiEEE11__vallocateB8ue170006Em, symObjAddr: 0x90E0, symBinAddr: 0x10000A430, symSize: 0xA0 }
  - { offsetInCU: 0x24B05, offset: 0x24B05, size: 0x8, addend: 0x0, symName: __ZNSt3__16vectorIiNS_9allocatorIiEEE18__construct_at_endEmRKi, symObjAddr: 0x9180, symBinAddr: 0x10000A4D0, symSize: 0xD0 }
  - { offsetInCU: 0x24B86, offset: 0x24B86, size: 0x8, addend: 0x0, symName: __ZNSt3__128__exception_guard_exceptionsINS_6vectorIiNS_9allocatorIiEEE16__destroy_vectorEE10__completeB8ue170006Ev, symObjAddr: 0x9250, symBinAddr: 0x10000A5A0, symSize: 0x20 }
  - { offsetInCU: 0x24BAC, offset: 0x24BAC, size: 0x8, addend: 0x0, symName: __ZNSt3__128__exception_guard_exceptionsINS_6vectorIiNS_9allocatorIiEEE16__destroy_vectorEED1B8ue170006Ev, symObjAddr: 0x9270, symBinAddr: 0x10000A5C0, symSize: 0x20 }
  - { offsetInCU: 0x24BD6, offset: 0x24BD6, size: 0x8, addend: 0x0, symName: __ZNSt3__117__compressed_pairIPiNS_9allocatorIiEEEC2B8ue170006IDnNS_18__default_init_tagEEEOT_OT0_, symObjAddr: 0x9290, symBinAddr: 0x10000A5E0, symSize: 0x40 }
  - { offsetInCU: 0x24C2E, offset: 0x24C2E, size: 0x8, addend: 0x0, symName: __ZNSt3__122__compressed_pair_elemIPiLi0ELb0EEC2B8ue170006IDnvEEOT_, symObjAddr: 0x92D0, symBinAddr: 0x10000A620, symSize: 0x20 }
  - { offsetInCU: 0x24C70, offset: 0x24C70, size: 0x8, addend: 0x0, symName: __ZNSt3__122__compressed_pair_elemINS_9allocatorIiEELi1ELb1EEC2B8ue170006ENS_18__default_init_tagE, symObjAddr: 0x92F0, symBinAddr: 0x10000A640, symSize: 0x20 }
  - { offsetInCU: 0x24CA4, offset: 0x24CA4, size: 0x8, addend: 0x0, symName: __ZNSt3__19allocatorIiEC2B8ue170006Ev, symObjAddr: 0x9310, symBinAddr: 0x10000A660, symSize: 0x20 }
  - { offsetInCU: 0x24CCE, offset: 0x24CCE, size: 0x8, addend: 0x0, symName: __ZNSt3__116__non_trivial_ifILb1ENS_9allocatorIiEEEC2B8ue170006Ev, symObjAddr: 0x9330, symBinAddr: 0x10000A680, symSize: 0x10 }
  - { offsetInCU: 0x24CF8, offset: 0x24CF8, size: 0x8, addend: 0x0, symName: __ZNSt3__128__exception_guard_exceptionsINS_6vectorIiNS_9allocatorIiEEE16__destroy_vectorEEC1B8ue170006ES5_, symObjAddr: 0x9340, symBinAddr: 0x10000A690, symSize: 0x30 }
  - { offsetInCU: 0x24D30, offset: 0x24D30, size: 0x8, addend: 0x0, symName: __ZNSt3__128__exception_guard_exceptionsINS_6vectorIiNS_9allocatorIiEEE16__destroy_vectorEEC2B8ue170006ES5_, symObjAddr: 0x9370, symBinAddr: 0x10000A6C0, symSize: 0x20 }
  - { offsetInCU: 0x24D68, offset: 0x24D68, size: 0x8, addend: 0x0, symName: __ZNSt3__16vectorIiNS_9allocatorIiEEE16__destroy_vectorC2B8ue170006ERS3_, symObjAddr: 0x9390, symBinAddr: 0x10000A6E0, symSize: 0x20 }
  - { offsetInCU: 0x24DA1, offset: 0x24DA1, size: 0x8, addend: 0x0, symName: __ZNKSt3__16vectorIiNS_9allocatorIiEEE8max_sizeEv, symObjAddr: 0x93B0, symBinAddr: 0x10000A700, symSize: 0x70 }
  - { offsetInCU: 0x24DC9, offset: 0x24DC9, size: 0x8, addend: 0x0, symName: __ZNKSt3__16vectorIiNS_9allocatorIiEEE20__throw_length_errorB8ue170006Ev, symObjAddr: 0x9420, symBinAddr: 0x10000A770, symSize: 0x20 }
  - { offsetInCU: 0x24DEF, offset: 0x24DEF, size: 0x8, addend: 0x0, symName: __ZNSt3__16vectorIiNS_9allocatorIiEEE7__allocB8ue170006Ev, symObjAddr: 0x9480, symBinAddr: 0x10000A7D0, symSize: 0x20 }
  - { offsetInCU: 0x24E15, offset: 0x24E15, size: 0x8, addend: 0x0, symName: __ZNSt3__16vectorIiNS_9allocatorIiEEE9__end_capB8ue170006Ev, symObjAddr: 0x94A0, symBinAddr: 0x10000A7F0, symSize: 0x20 }
  - { offsetInCU: 0x24E3B, offset: 0x24E3B, size: 0x8, addend: 0x0, symName: __ZNKSt3__16vectorIiNS_9allocatorIiEEE14__annotate_newB8ue170006Em, symObjAddr: 0x94C0, symBinAddr: 0x10000A810, symSize: 0xB0 }
  - { offsetInCU: 0x24E7A, offset: 0x24E7A, size: 0x8, addend: 0x0, symName: __ZNSt3__116allocator_traitsINS_9allocatorIiEEE8max_sizeB8ue170006IS2_vEEmRKS2_, symObjAddr: 0x9570, symBinAddr: 0x10000A8C0, symSize: 0x20 }
  - { offsetInCU: 0x24EA8, offset: 0x24EA8, size: 0x8, addend: 0x0, symName: __ZNKSt3__16vectorIiNS_9allocatorIiEEE7__allocB8ue170006Ev, symObjAddr: 0x9590, symBinAddr: 0x10000A8E0, symSize: 0x20 }
  - { offsetInCU: 0x24ECE, offset: 0x24ECE, size: 0x8, addend: 0x0, symName: __ZNKSt3__19allocatorIiE8max_sizeB8ue170006Ev, symObjAddr: 0x95B0, symBinAddr: 0x10000A900, symSize: 0x20 }
  - { offsetInCU: 0x24EF4, offset: 0x24EF4, size: 0x8, addend: 0x0, symName: __ZNKSt3__117__compressed_pairIPiNS_9allocatorIiEEE6secondB8ue170006Ev, symObjAddr: 0x95D0, symBinAddr: 0x10000A920, symSize: 0x20 }
  - { offsetInCU: 0x24F1A, offset: 0x24F1A, size: 0x8, addend: 0x0, symName: __ZNKSt3__122__compressed_pair_elemINS_9allocatorIiEELi1ELb1EE5__getB8ue170006Ev, symObjAddr: 0x95F0, symBinAddr: 0x10000A940, symSize: 0x10 }
  - { offsetInCU: 0x24F40, offset: 0x24F40, size: 0x8, addend: 0x0, symName: __ZNSt3__19allocatorIiE8allocateB8ue170006Em, symObjAddr: 0x9600, symBinAddr: 0x10000A950, symSize: 0x80 }
  - { offsetInCU: 0x24F74, offset: 0x24F74, size: 0x8, addend: 0x0, symName: __ZNSt3__117__compressed_pairIPiNS_9allocatorIiEEE6secondB8ue170006Ev, symObjAddr: 0x9680, symBinAddr: 0x10000A9D0, symSize: 0x20 }
  - { offsetInCU: 0x24F9A, offset: 0x24F9A, size: 0x8, addend: 0x0, symName: __ZNSt3__122__compressed_pair_elemINS_9allocatorIiEELi1ELb1EE5__getB8ue170006Ev, symObjAddr: 0x96A0, symBinAddr: 0x10000A9F0, symSize: 0x10 }
  - { offsetInCU: 0x24FC0, offset: 0x24FC0, size: 0x8, addend: 0x0, symName: __ZNSt3__117__compressed_pairIPiNS_9allocatorIiEEE5firstB8ue170006Ev, symObjAddr: 0x96B0, symBinAddr: 0x10000AA00, symSize: 0x20 }
  - { offsetInCU: 0x24FE6, offset: 0x24FE6, size: 0x8, addend: 0x0, symName: __ZNSt3__122__compressed_pair_elemIPiLi0ELb0EE5__getB8ue170006Ev, symObjAddr: 0x96D0, symBinAddr: 0x10000AA20, symSize: 0x10 }
  - { offsetInCU: 0x2500C, offset: 0x2500C, size: 0x8, addend: 0x0, symName: __ZNKSt3__16vectorIiNS_9allocatorIiEEE31__annotate_contiguous_containerB8ue170006EPKvS5_S5_S5_, symObjAddr: 0x96E0, symBinAddr: 0x10000AA30, symSize: 0x20 }
  - { offsetInCU: 0x2505E, offset: 0x2505E, size: 0x8, addend: 0x0, symName: __ZNKSt3__16vectorIiNS_9allocatorIiEEE4dataB8ue170006Ev, symObjAddr: 0x9700, symBinAddr: 0x10000AA50, symSize: 0x20 }
  - { offsetInCU: 0x25084, offset: 0x25084, size: 0x8, addend: 0x0, symName: __ZNKSt3__16vectorIiNS_9allocatorIiEEE8capacityB8ue170006Ev, symObjAddr: 0x9720, symBinAddr: 0x10000AA70, symSize: 0x30 }
  - { offsetInCU: 0x250AA, offset: 0x250AA, size: 0x8, addend: 0x0, symName: __ZNKSt3__16vectorIiNS_9allocatorIiEEE9__end_capB8ue170006Ev, symObjAddr: 0x9760, symBinAddr: 0x10000AAB0, symSize: 0x20 }
  - { offsetInCU: 0x250D0, offset: 0x250D0, size: 0x8, addend: 0x0, symName: __ZNKSt3__117__compressed_pairIPiNS_9allocatorIiEEE5firstB8ue170006Ev, symObjAddr: 0x9780, symBinAddr: 0x10000AAD0, symSize: 0x20 }
  - { offsetInCU: 0x250F6, offset: 0x250F6, size: 0x8, addend: 0x0, symName: __ZNKSt3__122__compressed_pair_elemIPiLi0ELb0EE5__getB8ue170006Ev, symObjAddr: 0x97A0, symBinAddr: 0x10000AAF0, symSize: 0x10 }
  - { offsetInCU: 0x25135, offset: 0x25135, size: 0x8, addend: 0x0, symName: __ZNSt3__16vectorIiNS_9allocatorIiEEE21_ConstructTransactionC1B8ue170006ERS3_m, symObjAddr: 0x97B0, symBinAddr: 0x10000AB00, symSize: 0x30 }
  - { offsetInCU: 0x2517D, offset: 0x2517D, size: 0x8, addend: 0x0, symName: __ZNSt3__116allocator_traitsINS_9allocatorIiEEE9constructB8ue170006IiJRKiEvEEvRS2_PT_DpOT0_, symObjAddr: 0x97E0, symBinAddr: 0x10000AB30, symSize: 0x30 }
  - { offsetInCU: 0x251D4, offset: 0x251D4, size: 0x8, addend: 0x0, symName: __ZNSt3__16vectorIiNS_9allocatorIiEEE21_ConstructTransactionD1B8ue170006Ev, symObjAddr: 0x9810, symBinAddr: 0x10000AB60, symSize: 0x20 }
  - { offsetInCU: 0x251FE, offset: 0x251FE, size: 0x8, addend: 0x0, symName: __ZNSt3__16vectorIiNS_9allocatorIiEEE21_ConstructTransactionC2B8ue170006ERS3_m, symObjAddr: 0x9830, symBinAddr: 0x10000AB80, symSize: 0x40 }
  - { offsetInCU: 0x25246, offset: 0x25246, size: 0x8, addend: 0x0, symName: __ZNSt3__19allocatorIiE9constructB8ue170006IiJRKiEEEvPT_DpOT0_, symObjAddr: 0x9870, symBinAddr: 0x10000ABC0, symSize: 0x20 }
  - { offsetInCU: 0x2529C, offset: 0x2529C, size: 0x8, addend: 0x0, symName: __ZNSt3__16vectorIiNS_9allocatorIiEEE21_ConstructTransactionD2B8ue170006Ev, symObjAddr: 0x9890, symBinAddr: 0x10000ABE0, symSize: 0x20 }
  - { offsetInCU: 0x252C6, offset: 0x252C6, size: 0x8, addend: 0x0, symName: __ZNSt3__128__exception_guard_exceptionsINS_6vectorIiNS_9allocatorIiEEE16__destroy_vectorEED2B8ue170006Ev, symObjAddr: 0x98B0, symBinAddr: 0x10000AC00, symSize: 0x30 }
  - { offsetInCU: 0x252F0, offset: 0x252F0, size: 0x8, addend: 0x0, symName: __ZNSt3__16vectorIiNS_9allocatorIiEEE16__destroy_vectorclB8ue170006Ev, symObjAddr: 0x98E0, symBinAddr: 0x10000AC30, symSize: 0x80 }
  - { offsetInCU: 0x25316, offset: 0x25316, size: 0x8, addend: 0x0, symName: __ZNSt3__16vectorIiNS_9allocatorIiEEE7__clearB8ue170006Ev, symObjAddr: 0x9960, symBinAddr: 0x10000ACB0, symSize: 0x20 }
  - { offsetInCU: 0x2533C, offset: 0x2533C, size: 0x8, addend: 0x0, symName: __ZNKSt3__16vectorIiNS_9allocatorIiEEE17__annotate_deleteB8ue170006Ev, symObjAddr: 0x9980, symBinAddr: 0x10000ACD0, symSize: 0xB0 }
  - { offsetInCU: 0x25362, offset: 0x25362, size: 0x8, addend: 0x0, symName: __ZNSt3__116allocator_traitsINS_9allocatorIiEEE10deallocateB8ue170006ERS2_Pim, symObjAddr: 0x9A30, symBinAddr: 0x10000AD80, symSize: 0x30 }
  - { offsetInCU: 0x253A4, offset: 0x253A4, size: 0x8, addend: 0x0, symName: __ZNSt3__16vectorIiNS_9allocatorIiEEE22__base_destruct_at_endB8ue170006EPi, symObjAddr: 0x9A60, symBinAddr: 0x10000ADB0, symSize: 0x90 }
  - { offsetInCU: 0x253E8, offset: 0x253E8, size: 0x8, addend: 0x0, symName: __ZNSt3__116allocator_traitsINS_9allocatorIiEEE7destroyB8ue170006IivEEvRS2_PT_, symObjAddr: 0x9AF0, symBinAddr: 0x10000AE40, symSize: 0x30 }
  - { offsetInCU: 0x25425, offset: 0x25425, size: 0x8, addend: 0x0, symName: __ZNSt3__19allocatorIiE7destroyB8ue170006EPi, symObjAddr: 0x9B20, symBinAddr: 0x10000AE70, symSize: 0x10 }
  - { offsetInCU: 0x25459, offset: 0x25459, size: 0x8, addend: 0x0, symName: __ZNSt3__19allocatorIiE10deallocateB8ue170006EPim, symObjAddr: 0x9B30, symBinAddr: 0x10000AE80, symSize: 0x70 }
  - { offsetInCU: 0x2549B, offset: 0x2549B, size: 0x8, addend: 0x0, symName: __ZNSt3__16vectorIiNS_9allocatorIiEEED2B8ue170006Ev, symObjAddr: 0x9BA0, symBinAddr: 0x10000AEF0, symSize: 0x30 }
  - { offsetInCU: 0x254C5, offset: 0x254C5, size: 0x8, addend: 0x0, symName: __ZNSt3__16vectorIeNS_9allocatorIeEEEC2B8ue170006Ev, symObjAddr: 0x9BD0, symBinAddr: 0x10000AF20, symSize: 0x40 }
  - { offsetInCU: 0x254EF, offset: 0x254EF, size: 0x8, addend: 0x0, symName: __ZNSt3__117__compressed_pairIPeNS_9allocatorIeEEEC1B8ue170006IDnNS_18__default_init_tagEEEOT_OT0_, symObjAddr: 0x9C10, symBinAddr: 0x10000AF60, symSize: 0x30 }
  - { offsetInCU: 0x25547, offset: 0x25547, size: 0x8, addend: 0x0, symName: __ZNSt3__117__compressed_pairIPeNS_9allocatorIeEEEC2B8ue170006IDnNS_18__default_init_tagEEEOT_OT0_, symObjAddr: 0x9C40, symBinAddr: 0x10000AF90, symSize: 0x40 }
  - { offsetInCU: 0x2559F, offset: 0x2559F, size: 0x8, addend: 0x0, symName: __ZNSt3__122__compressed_pair_elemIPeLi0ELb0EEC2B8ue170006IDnvEEOT_, symObjAddr: 0x9C80, symBinAddr: 0x10000AFD0, symSize: 0x20 }
  - { offsetInCU: 0x255E1, offset: 0x255E1, size: 0x8, addend: 0x0, symName: __ZNSt3__122__compressed_pair_elemINS_9allocatorIeEELi1ELb1EEC2B8ue170006ENS_18__default_init_tagE, symObjAddr: 0x9CA0, symBinAddr: 0x10000AFF0, symSize: 0x20 }
  - { offsetInCU: 0x25615, offset: 0x25615, size: 0x8, addend: 0x0, symName: __ZNSt3__19allocatorIeEC2B8ue170006Ev, symObjAddr: 0x9CC0, symBinAddr: 0x10000B010, symSize: 0x20 }
  - { offsetInCU: 0x2563F, offset: 0x2563F, size: 0x8, addend: 0x0, symName: __ZNSt3__116__non_trivial_ifILb1ENS_9allocatorIeEEEC2B8ue170006Ev, symObjAddr: 0x9CE0, symBinAddr: 0x10000B030, symSize: 0x10 }
  - { offsetInCU: 0x25669, offset: 0x25669, size: 0x8, addend: 0x0, symName: __ZNSt3__16vectorIeNS_9allocatorIeEEED2B8ue170006Ev, symObjAddr: 0x9CF0, symBinAddr: 0x10000B040, symSize: 0x30 }
  - { offsetInCU: 0x25693, offset: 0x25693, size: 0x8, addend: 0x0, symName: __ZNSt3__16vectorIeNS_9allocatorIeEEE16__destroy_vectorC1B8ue170006ERS3_, symObjAddr: 0x9D20, symBinAddr: 0x10000B070, symSize: 0x30 }
  - { offsetInCU: 0x256CC, offset: 0x256CC, size: 0x8, addend: 0x0, symName: __ZNSt3__16vectorIeNS_9allocatorIeEEE16__destroy_vectorclB8ue170006Ev, symObjAddr: 0x9D50, symBinAddr: 0x10000B0A0, symSize: 0x80 }
  - { offsetInCU: 0x256F2, offset: 0x256F2, size: 0x8, addend: 0x0, symName: __ZNSt3__16vectorIeNS_9allocatorIeEEE16__destroy_vectorC2B8ue170006ERS3_, symObjAddr: 0x9DD0, symBinAddr: 0x10000B120, symSize: 0x20 }
  - { offsetInCU: 0x2572B, offset: 0x2572B, size: 0x8, addend: 0x0, symName: __ZNSt3__16vectorIeNS_9allocatorIeEEE7__clearB8ue170006Ev, symObjAddr: 0x9DF0, symBinAddr: 0x10000B140, symSize: 0x20 }
  - { offsetInCU: 0x25751, offset: 0x25751, size: 0x8, addend: 0x0, symName: __ZNKSt3__16vectorIeNS_9allocatorIeEEE17__annotate_deleteB8ue170006Ev, symObjAddr: 0x9E10, symBinAddr: 0x10000B160, symSize: 0xB0 }
  - { offsetInCU: 0x25777, offset: 0x25777, size: 0x8, addend: 0x0, symName: __ZNSt3__116allocator_traitsINS_9allocatorIeEEE10deallocateB8ue170006ERS2_Pem, symObjAddr: 0x9EC0, symBinAddr: 0x10000B210, symSize: 0x30 }
  - { offsetInCU: 0x257B9, offset: 0x257B9, size: 0x8, addend: 0x0, symName: __ZNSt3__16vectorIeNS_9allocatorIeEEE7__allocB8ue170006Ev, symObjAddr: 0x9EF0, symBinAddr: 0x10000B240, symSize: 0x20 }
  - { offsetInCU: 0x257DF, offset: 0x257DF, size: 0x8, addend: 0x0, symName: __ZNKSt3__16vectorIeNS_9allocatorIeEEE8capacityB8ue170006Ev, symObjAddr: 0x9F10, symBinAddr: 0x10000B260, symSize: 0x30 }
  - { offsetInCU: 0x25805, offset: 0x25805, size: 0x8, addend: 0x0, symName: __ZNSt3__16vectorIeNS_9allocatorIeEEE22__base_destruct_at_endB8ue170006EPe, symObjAddr: 0x9F40, symBinAddr: 0x10000B290, symSize: 0x90 }
  - { offsetInCU: 0x25849, offset: 0x25849, size: 0x8, addend: 0x0, symName: __ZNSt3__116allocator_traitsINS_9allocatorIeEEE7destroyB8ue170006IevEEvRS2_PT_, symObjAddr: 0x9FD0, symBinAddr: 0x10000B320, symSize: 0x30 }
  - { offsetInCU: 0x25886, offset: 0x25886, size: 0x8, addend: 0x0, symName: __ZNSt3__19allocatorIeE7destroyB8ue170006EPe, symObjAddr: 0xA010, symBinAddr: 0x10000B360, symSize: 0x10 }
  - { offsetInCU: 0x258BA, offset: 0x258BA, size: 0x8, addend: 0x0, symName: __ZNKSt3__16vectorIeNS_9allocatorIeEEE31__annotate_contiguous_containerB8ue170006EPKvS5_S5_S5_, symObjAddr: 0xA020, symBinAddr: 0x10000B370, symSize: 0x20 }
  - { offsetInCU: 0x2590C, offset: 0x2590C, size: 0x8, addend: 0x0, symName: __ZNKSt3__16vectorIeNS_9allocatorIeEEE4dataB8ue170006Ev, symObjAddr: 0xA040, symBinAddr: 0x10000B390, symSize: 0x20 }
  - { offsetInCU: 0x25932, offset: 0x25932, size: 0x8, addend: 0x0, symName: __ZNKSt3__16vectorIeNS_9allocatorIeEEE4sizeB8ue170006Ev, symObjAddr: 0xA060, symBinAddr: 0x10000B3B0, symSize: 0x20 }
  - { offsetInCU: 0x25958, offset: 0x25958, size: 0x8, addend: 0x0, symName: __ZNSt3__19allocatorIeE10deallocateB8ue170006EPem, symObjAddr: 0xA080, symBinAddr: 0x10000B3D0, symSize: 0x70 }
  - { offsetInCU: 0x2599A, offset: 0x2599A, size: 0x8, addend: 0x0, symName: __ZNSt3__117__compressed_pairIPeNS_9allocatorIeEEE6secondB8ue170006Ev, symObjAddr: 0xA0F0, symBinAddr: 0x10000B440, symSize: 0x20 }
  - { offsetInCU: 0x259C0, offset: 0x259C0, size: 0x8, addend: 0x0, symName: __ZNSt3__122__compressed_pair_elemINS_9allocatorIeEELi1ELb1EE5__getB8ue170006Ev, symObjAddr: 0xA110, symBinAddr: 0x10000B460, symSize: 0x10 }
  - { offsetInCU: 0x259E6, offset: 0x259E6, size: 0x8, addend: 0x0, symName: __ZNKSt3__16vectorIeNS_9allocatorIeEEE9__end_capB8ue170006Ev, symObjAddr: 0xA120, symBinAddr: 0x10000B470, symSize: 0x20 }
  - { offsetInCU: 0x25A0C, offset: 0x25A0C, size: 0x8, addend: 0x0, symName: __ZNKSt3__117__compressed_pairIPeNS_9allocatorIeEEE5firstB8ue170006Ev, symObjAddr: 0xA140, symBinAddr: 0x10000B490, symSize: 0x20 }
  - { offsetInCU: 0x25A32, offset: 0x25A32, size: 0x8, addend: 0x0, symName: __ZNKSt3__122__compressed_pair_elemIPeLi0ELb0EE5__getB8ue170006Ev, symObjAddr: 0xA160, symBinAddr: 0x10000B4B0, symSize: 0x10 }
  - { offsetInCU: 0x25A58, offset: 0x25A58, size: 0x8, addend: 0x0, symName: __ZNKSt3__16vectorIeNS_9allocatorIeEEE8max_sizeEv, symObjAddr: 0xA170, symBinAddr: 0x10000B4C0, symSize: 0x70 }
  - { offsetInCU: 0x25A80, offset: 0x25A80, size: 0x8, addend: 0x0, symName: __ZNKSt3__16vectorIeNS_9allocatorIeEEE20__throw_length_errorB8ue170006Ev, symObjAddr: 0xA1E0, symBinAddr: 0x10000B530, symSize: 0x20 }
  - { offsetInCU: 0x25AA6, offset: 0x25AA6, size: 0x8, addend: 0x0, symName: __ZNSt3__114__split_bufferIeRNS_9allocatorIeEEEC1EmmS3_, symObjAddr: 0xA200, symBinAddr: 0x10000B550, symSize: 0x40 }
  - { offsetInCU: 0x25AFC, offset: 0x25AFC, size: 0x8, addend: 0x0, symName: __ZNSt3__114__split_bufferIeRNS_9allocatorIeEEED1Ev, symObjAddr: 0xA360, symBinAddr: 0x10000B6B0, symSize: 0x20 }
  - { offsetInCU: 0x25B32, offset: 0x25B32, size: 0x8, addend: 0x0, symName: __ZNSt3__116allocator_traitsINS_9allocatorIeEEE8max_sizeB8ue170006IS2_vEEmRKS2_, symObjAddr: 0xA380, symBinAddr: 0x10000B6D0, symSize: 0x20 }
  - { offsetInCU: 0x25B60, offset: 0x25B60, size: 0x8, addend: 0x0, symName: __ZNKSt3__16vectorIeNS_9allocatorIeEEE7__allocB8ue170006Ev, symObjAddr: 0xA3A0, symBinAddr: 0x10000B6F0, symSize: 0x20 }
  - { offsetInCU: 0x25B86, offset: 0x25B86, size: 0x8, addend: 0x0, symName: __ZNKSt3__19allocatorIeE8max_sizeB8ue170006Ev, symObjAddr: 0xA3C0, symBinAddr: 0x10000B710, symSize: 0x20 }
  - { offsetInCU: 0x25BAC, offset: 0x25BAC, size: 0x8, addend: 0x0, symName: __ZNKSt3__117__compressed_pairIPeNS_9allocatorIeEEE6secondB8ue170006Ev, symObjAddr: 0xA3E0, symBinAddr: 0x10000B730, symSize: 0x20 }
  - { offsetInCU: 0x25BD2, offset: 0x25BD2, size: 0x8, addend: 0x0, symName: __ZNKSt3__122__compressed_pair_elemINS_9allocatorIeEELi1ELb1EE5__getB8ue170006Ev, symObjAddr: 0xA400, symBinAddr: 0x10000B750, symSize: 0x10 }
  - { offsetInCU: 0x25BF8, offset: 0x25BF8, size: 0x8, addend: 0x0, symName: __ZNSt3__114__split_bufferIeRNS_9allocatorIeEEEC2EmmS3_, symObjAddr: 0xA410, symBinAddr: 0x10000B760, symSize: 0xD0 }
  - { offsetInCU: 0x25C6B, offset: 0x25C6B, size: 0x8, addend: 0x0, symName: __ZNSt3__117__compressed_pairIPeRNS_9allocatorIeEEEC1B8ue170006IDnS4_EEOT_OT0_, symObjAddr: 0xA4E0, symBinAddr: 0x10000B830, symSize: 0x30 }
  - { offsetInCU: 0x25CC3, offset: 0x25CC3, size: 0x8, addend: 0x0, symName: __ZNSt3__114__split_bufferIeRNS_9allocatorIeEEE7__allocB8ue170006Ev, symObjAddr: 0xA550, symBinAddr: 0x10000B8A0, symSize: 0x20 }
  - { offsetInCU: 0x25CE9, offset: 0x25CE9, size: 0x8, addend: 0x0, symName: __ZNSt3__114__split_bufferIeRNS_9allocatorIeEEE9__end_capB8ue170006Ev, symObjAddr: 0xA570, symBinAddr: 0x10000B8C0, symSize: 0x20 }
  - { offsetInCU: 0x25D0F, offset: 0x25D0F, size: 0x8, addend: 0x0, symName: __ZNSt3__117__compressed_pairIPeRNS_9allocatorIeEEEC2B8ue170006IDnS4_EEOT_OT0_, symObjAddr: 0xA590, symBinAddr: 0x10000B8E0, symSize: 0x40 }
  - { offsetInCU: 0x25D67, offset: 0x25D67, size: 0x8, addend: 0x0, symName: __ZNSt3__122__compressed_pair_elemIRNS_9allocatorIeEELi1ELb0EEC2B8ue170006IS3_vEEOT_, symObjAddr: 0xA5D0, symBinAddr: 0x10000B920, symSize: 0x20 }
  - { offsetInCU: 0x25DA9, offset: 0x25DA9, size: 0x8, addend: 0x0, symName: __ZNSt3__19allocatorIeE8allocateB8ue170006Em, symObjAddr: 0xA5F0, symBinAddr: 0x10000B940, symSize: 0x80 }
  - { offsetInCU: 0x25DDD, offset: 0x25DDD, size: 0x8, addend: 0x0, symName: __ZNSt3__117__compressed_pairIPeRNS_9allocatorIeEEE6secondB8ue170006Ev, symObjAddr: 0xA670, symBinAddr: 0x10000B9C0, symSize: 0x20 }
  - { offsetInCU: 0x25E03, offset: 0x25E03, size: 0x8, addend: 0x0, symName: __ZNSt3__122__compressed_pair_elemIRNS_9allocatorIeEELi1ELb0EE5__getB8ue170006Ev, symObjAddr: 0xA690, symBinAddr: 0x10000B9E0, symSize: 0x20 }
  - { offsetInCU: 0x25E29, offset: 0x25E29, size: 0x8, addend: 0x0, symName: __ZNSt3__117__compressed_pairIPeRNS_9allocatorIeEEE5firstB8ue170006Ev, symObjAddr: 0xA6B0, symBinAddr: 0x10000BA00, symSize: 0x20 }
  - { offsetInCU: 0x25E4F, offset: 0x25E4F, size: 0x8, addend: 0x0, symName: __ZNSt3__122__compressed_pair_elemIPeLi0ELb0EE5__getB8ue170006Ev, symObjAddr: 0xA6D0, symBinAddr: 0x10000BA20, symSize: 0x10 }
  - { offsetInCU: 0x25E75, offset: 0x25E75, size: 0x8, addend: 0x0, symName: __ZNSt3__116reverse_iteratorIPeEC1B8ue170006ES1_, symObjAddr: 0xA800, symBinAddr: 0x10000BB50, symSize: 0x30 }
  - { offsetInCU: 0x25EAD, offset: 0x25EAD, size: 0x8, addend: 0x0, symName: __ZNKSt3__116reverse_iteratorIPeE4baseB8ue170006Ev, symObjAddr: 0xA830, symBinAddr: 0x10000BB80, symSize: 0x20 }
  - { offsetInCU: 0x25ED3, offset: 0x25ED3, size: 0x8, addend: 0x0, symName: __ZNSt3__16vectorIeNS_9allocatorIeEEE9__end_capB8ue170006Ev, symObjAddr: 0xA890, symBinAddr: 0x10000BBE0, symSize: 0x20 }
  - { offsetInCU: 0x25EF9, offset: 0x25EF9, size: 0x8, addend: 0x0, symName: __ZNKSt3__16vectorIeNS_9allocatorIeEEE14__annotate_newB8ue170006Em, symObjAddr: 0xA8B0, symBinAddr: 0x10000BC00, symSize: 0xB0 }
  - { offsetInCU: 0x25F2E, offset: 0x25F2E, size: 0x8, addend: 0x0, symName: __ZNKSt3__116reverse_iteratorIPeEdeB8ue170006Ev, symObjAddr: 0xA9F0, symBinAddr: 0x10000BD40, symSize: 0x30 }
  - { offsetInCU: 0x25F62, offset: 0x25F62, size: 0x8, addend: 0x0, symName: __ZNSt3__116reverse_iteratorIPeEppB8ue170006Ev, symObjAddr: 0xAA20, symBinAddr: 0x10000BD70, symSize: 0x20 }
  - { offsetInCU: 0x25F8D, offset: 0x25F8D, size: 0x8, addend: 0x0, symName: __ZNSt3__119__to_address_helperINS_16reverse_iteratorIPeEEvE6__callB8ue170006ERKS3_, symObjAddr: 0xAAC0, symBinAddr: 0x10000BE10, symSize: 0x50 }
  - { offsetInCU: 0x25FB0, offset: 0x25FB0, size: 0x8, addend: 0x0, symName: __ZNKSt3__116reverse_iteratorIPeEptB8ue170006Ev, symObjAddr: 0xAB10, symBinAddr: 0x10000BE60, symSize: 0x20 }
  - { offsetInCU: 0x25FF9, offset: 0x25FF9, size: 0x8, addend: 0x0, symName: __ZNKSt3__111__move_loopINS_17_ClassicAlgPolicyEEclB8ue170006INS_16reverse_iteratorIPeEES6_S6_EENS_4pairIT_T1_EES8_T0_S9_, symObjAddr: 0xAEF0, symBinAddr: 0x10000C240, symSize: 0xA0 }
  - { offsetInCU: 0x26069, offset: 0x26069, size: 0x8, addend: 0x0, symName: __ZNSt3__18_IterOpsINS_17_ClassicAlgPolicyEE11__iter_moveB8ue170006IRNS_16reverse_iteratorIPeEEEENS_9enable_ifIXsr12is_referenceIDTdeclsr3stdE7declvalIRT_EEEEE5valueEDTclsr3stdE4movedeclsr3stdE7declvalISA_EEEEE4typeEOS9_, symObjAddr: 0xB0E0, symBinAddr: 0x10000C430, symSize: 0x20 }
  - { offsetInCU: 0x26095, offset: 0x26095, size: 0x8, addend: 0x0, symName: __ZNSt3__18_IterOpsINS_17_ClassicAlgPolicyEE25__validate_iter_referenceB8ue170006IRNS_16reverse_iteratorIPeEEEEvv, symObjAddr: 0xB100, symBinAddr: 0x10000C450, symSize: 0x10 }
  - { offsetInCU: 0x260B3, offset: 0x260B3, size: 0x8, addend: 0x0, symName: __ZNSt3__118__unwrap_iter_implINS_16reverse_iteratorIPeEELb0EE8__unwrapB8ue170006ES3_, symObjAddr: 0xB110, symBinAddr: 0x10000C460, symSize: 0x20 }
  - { offsetInCU: 0x260D6, offset: 0x260D6, size: 0x8, addend: 0x0, symName: __ZNSt3__14pairINS_16reverse_iteratorIPeEES3_EC1B8ue170006ERKS3_S6_, symObjAddr: 0xB130, symBinAddr: 0x10000C480, symSize: 0x30 }
  - { offsetInCU: 0x2611C, offset: 0x2611C, size: 0x8, addend: 0x0, symName: __ZNSt3__14pairINS_16reverse_iteratorIPeEES3_EC2B8ue170006ERKS3_S6_, symObjAddr: 0xB160, symBinAddr: 0x10000C4B0, symSize: 0x40 }
  - { offsetInCU: 0x26162, offset: 0x26162, size: 0x8, addend: 0x0, symName: __ZNSt3__118__unwrap_iter_implINS_16reverse_iteratorIPeEELb0EE8__rewrapB8ue170006ES3_S3_, symObjAddr: 0xB1A0, symBinAddr: 0x10000C4F0, symSize: 0x30 }
  - { offsetInCU: 0x2618F, offset: 0x2618F, size: 0x8, addend: 0x0, symName: __ZNSt3__116reverse_iteratorIPeEC2B8ue170006ES1_, symObjAddr: 0xB1D0, symBinAddr: 0x10000C520, symSize: 0x30 }
  - { offsetInCU: 0x261C7, offset: 0x261C7, size: 0x8, addend: 0x0, symName: __ZNSt3__117__compressed_pairIPeNS_9allocatorIeEEE5firstB8ue170006Ev, symObjAddr: 0xB200, symBinAddr: 0x10000C550, symSize: 0x20 }
  - { offsetInCU: 0x261ED, offset: 0x261ED, size: 0x8, addend: 0x0, symName: __ZNSt3__114__split_bufferIeRNS_9allocatorIeEEED2Ev, symObjAddr: 0xB220, symBinAddr: 0x10000C570, symSize: 0x60 }
  - { offsetInCU: 0x26219, offset: 0x26219, size: 0x8, addend: 0x0, symName: __ZNSt3__114__split_bufferIeRNS_9allocatorIeEEE5clearB8ue170006Ev, symObjAddr: 0xB280, symBinAddr: 0x10000C5D0, symSize: 0x20 }
  - { offsetInCU: 0x2623F, offset: 0x2623F, size: 0x8, addend: 0x0, symName: __ZNKSt3__114__split_bufferIeRNS_9allocatorIeEEE8capacityB8ue170006Ev, symObjAddr: 0xB2A0, symBinAddr: 0x10000C5F0, symSize: 0x30 }
  - { offsetInCU: 0x26265, offset: 0x26265, size: 0x8, addend: 0x0, symName: __ZNSt3__114__split_bufferIeRNS_9allocatorIeEEE17__destruct_at_endB8ue170006EPe, symObjAddr: 0xB2D0, symBinAddr: 0x10000C620, symSize: 0x30 }
  - { offsetInCU: 0x26299, offset: 0x26299, size: 0x8, addend: 0x0, symName: __ZNSt3__114__split_bufferIeRNS_9allocatorIeEEE17__destruct_at_endB8ue170006EPeNS_17integral_constantIbLb0EEE, symObjAddr: 0xB300, symBinAddr: 0x10000C650, symSize: 0x80 }
  - { offsetInCU: 0x262D9, offset: 0x262D9, size: 0x8, addend: 0x0, symName: __ZNKSt3__114__split_bufferIeRNS_9allocatorIeEEE9__end_capB8ue170006Ev, symObjAddr: 0xB380, symBinAddr: 0x10000C6D0, symSize: 0x20 }
  - { offsetInCU: 0x262FF, offset: 0x262FF, size: 0x8, addend: 0x0, symName: __ZNKSt3__117__compressed_pairIPeRNS_9allocatorIeEEE5firstB8ue170006Ev, symObjAddr: 0xB3A0, symBinAddr: 0x10000C6F0, symSize: 0x20 }
  - { offsetInCU: 0x26325, offset: 0x26325, size: 0x8, addend: 0x0, symName: __ZNSt3__16vectorIiNS_9allocatorIiEEE11__make_iterB8ue170006EPi, symObjAddr: 0xB3C0, symBinAddr: 0x10000C710, symSize: 0x30 }
  - { offsetInCU: 0x2635A, offset: 0x2635A, size: 0x8, addend: 0x0, symName: __ZNSt3__111__wrap_iterIPiEC1B8ue170006ES1_, symObjAddr: 0xB3F0, symBinAddr: 0x10000C740, symSize: 0x30 }
  - { offsetInCU: 0x26392, offset: 0x26392, size: 0x8, addend: 0x0, symName: __ZNSt3__111__wrap_iterIPiEC2B8ue170006ES1_, symObjAddr: 0xB420, symBinAddr: 0x10000C770, symSize: 0x20 }
  - { offsetInCU: 0x263CA, offset: 0x263CA, size: 0x8, addend: 0x0, symName: __ZNKSt3__111__wrap_iterIPiE4baseB8ue170006Ev, symObjAddr: 0xB480, symBinAddr: 0x10000C7D0, symSize: 0x20 }
  - { offsetInCU: 0x263F0, offset: 0x263F0, size: 0x8, addend: 0x0, symName: __ZNSt3__16vectorIeNS_9allocatorIeEEE22__construct_one_at_endB8ue170006IJRKeEEEvDpOT_, symObjAddr: 0xB4A0, symBinAddr: 0x10000C7F0, symSize: 0xA0 }
  - { offsetInCU: 0x2643F, offset: 0x2643F, size: 0x8, addend: 0x0, symName: __ZNSt3__16vectorIeNS_9allocatorIeEEE21__push_back_slow_pathIRKeEEvOT_, symObjAddr: 0xB540, symBinAddr: 0x10000C890, symSize: 0xE0 }
  - { offsetInCU: 0x264B6, offset: 0x264B6, size: 0x8, addend: 0x0, symName: __ZNSt3__16vectorIeNS_9allocatorIeEEE21_ConstructTransactionC1B8ue170006ERS3_m, symObjAddr: 0xB620, symBinAddr: 0x10000C970, symSize: 0x30 }
  - { offsetInCU: 0x264FE, offset: 0x264FE, size: 0x8, addend: 0x0, symName: __ZNSt3__116allocator_traitsINS_9allocatorIeEEE9constructB8ue170006IeJRKeEvEEvRS2_PT_DpOT0_, symObjAddr: 0xB650, symBinAddr: 0x10000C9A0, symSize: 0x30 }
  - { offsetInCU: 0x26555, offset: 0x26555, size: 0x8, addend: 0x0, symName: __ZNSt3__16vectorIeNS_9allocatorIeEEE21_ConstructTransactionD1B8ue170006Ev, symObjAddr: 0xB680, symBinAddr: 0x10000C9D0, symSize: 0x20 }
  - { offsetInCU: 0x2657F, offset: 0x2657F, size: 0x8, addend: 0x0, symName: __ZNSt3__16vectorIeNS_9allocatorIeEEE21_ConstructTransactionC2B8ue170006ERS3_m, symObjAddr: 0xB6A0, symBinAddr: 0x10000C9F0, symSize: 0x40 }
  - { offsetInCU: 0x265C7, offset: 0x265C7, size: 0x8, addend: 0x0, symName: __ZNSt3__19allocatorIeE9constructB8ue170006IeJRKeEEEvPT_DpOT0_, symObjAddr: 0xB6E0, symBinAddr: 0x10000CA30, symSize: 0x20 }
  - { offsetInCU: 0x2661D, offset: 0x2661D, size: 0x8, addend: 0x0, symName: __ZNSt3__16vectorIeNS_9allocatorIeEEE21_ConstructTransactionD2B8ue170006Ev, symObjAddr: 0xB700, symBinAddr: 0x10000CA50, symSize: 0x20 }
  - { offsetInCU: 0x26647, offset: 0x26647, size: 0x8, addend: 0x0, symName: __ZNKSt3__16vectorIeNS_9allocatorIeEEE11__recommendB8ue170006Em, symObjAddr: 0xB720, symBinAddr: 0x10000CA70, symSize: 0xA0 }
  - { offsetInCU: 0x2669C, offset: 0x2669C, size: 0x8, addend: 0x0, symName: __ZNSt3__16vectorIcNS_9allocatorIcEEEC2EmRKc, symObjAddr: 0xB7C0, symBinAddr: 0x10000CB10, symSize: 0xE0 }
  - { offsetInCU: 0x266FB, offset: 0x266FB, size: 0x8, addend: 0x0, symName: __ZNSt3__117__compressed_pairIPcNS_9allocatorIcEEEC1B8ue170006IDnNS_18__default_init_tagEEEOT_OT0_, symObjAddr: 0xB8A0, symBinAddr: 0x10000CBF0, symSize: 0x30 }
  - { offsetInCU: 0x26753, offset: 0x26753, size: 0x8, addend: 0x0, symName: __ZNSt3__16vectorIcNS_9allocatorIcEEE16__destroy_vectorC1B8ue170006ERS3_, symObjAddr: 0xB910, symBinAddr: 0x10000CC60, symSize: 0x30 }
  - { offsetInCU: 0x2678C, offset: 0x2678C, size: 0x8, addend: 0x0, symName: __ZNSt3__16vectorIcNS_9allocatorIcEEE11__vallocateB8ue170006Em, symObjAddr: 0xB940, symBinAddr: 0x10000CC90, symSize: 0xA0 }
  - { offsetInCU: 0x267D0, offset: 0x267D0, size: 0x8, addend: 0x0, symName: __ZNSt3__16vectorIcNS_9allocatorIcEEE18__construct_at_endEmRKc, symObjAddr: 0xB9E0, symBinAddr: 0x10000CD30, symSize: 0xD0 }
  - { offsetInCU: 0x26851, offset: 0x26851, size: 0x8, addend: 0x0, symName: __ZNSt3__128__exception_guard_exceptionsINS_6vectorIcNS_9allocatorIcEEE16__destroy_vectorEE10__completeB8ue170006Ev, symObjAddr: 0xBAB0, symBinAddr: 0x10000CE00, symSize: 0x20 }
  - { offsetInCU: 0x26877, offset: 0x26877, size: 0x8, addend: 0x0, symName: __ZNSt3__128__exception_guard_exceptionsINS_6vectorIcNS_9allocatorIcEEE16__destroy_vectorEED1B8ue170006Ev, symObjAddr: 0xBAD0, symBinAddr: 0x10000CE20, symSize: 0x20 }
  - { offsetInCU: 0x268A1, offset: 0x268A1, size: 0x8, addend: 0x0, symName: __ZNSt3__117__compressed_pairIPcNS_9allocatorIcEEEC2B8ue170006IDnNS_18__default_init_tagEEEOT_OT0_, symObjAddr: 0xBAF0, symBinAddr: 0x10000CE40, symSize: 0x40 }
  - { offsetInCU: 0x268F9, offset: 0x268F9, size: 0x8, addend: 0x0, symName: __ZNSt3__122__compressed_pair_elemIPcLi0ELb0EEC2B8ue170006IDnvEEOT_, symObjAddr: 0xBB30, symBinAddr: 0x10000CE80, symSize: 0x20 }
  - { offsetInCU: 0x2693B, offset: 0x2693B, size: 0x8, addend: 0x0, symName: __ZNSt3__128__exception_guard_exceptionsINS_6vectorIcNS_9allocatorIcEEE16__destroy_vectorEEC1B8ue170006ES5_, symObjAddr: 0xBB50, symBinAddr: 0x10000CEA0, symSize: 0x30 }
  - { offsetInCU: 0x26973, offset: 0x26973, size: 0x8, addend: 0x0, symName: __ZNSt3__128__exception_guard_exceptionsINS_6vectorIcNS_9allocatorIcEEE16__destroy_vectorEEC2B8ue170006ES5_, symObjAddr: 0xBB80, symBinAddr: 0x10000CED0, symSize: 0x20 }
  - { offsetInCU: 0x269AB, offset: 0x269AB, size: 0x8, addend: 0x0, symName: __ZNSt3__16vectorIcNS_9allocatorIcEEE16__destroy_vectorC2B8ue170006ERS3_, symObjAddr: 0xBBA0, symBinAddr: 0x10000CEF0, symSize: 0x20 }
  - { offsetInCU: 0x269E4, offset: 0x269E4, size: 0x8, addend: 0x0, symName: __ZNKSt3__16vectorIcNS_9allocatorIcEEE8max_sizeEv, symObjAddr: 0xBBC0, symBinAddr: 0x10000CF10, symSize: 0x70 }
  - { offsetInCU: 0x26A0C, offset: 0x26A0C, size: 0x8, addend: 0x0, symName: __ZNKSt3__16vectorIcNS_9allocatorIcEEE20__throw_length_errorB8ue170006Ev, symObjAddr: 0xBC30, symBinAddr: 0x10000CF80, symSize: 0x20 }
  - { offsetInCU: 0x26A32, offset: 0x26A32, size: 0x8, addend: 0x0, symName: __ZNSt3__16vectorIcNS_9allocatorIcEEE7__allocB8ue170006Ev, symObjAddr: 0xBC90, symBinAddr: 0x10000CFE0, symSize: 0x20 }
  - { offsetInCU: 0x26A58, offset: 0x26A58, size: 0x8, addend: 0x0, symName: __ZNSt3__16vectorIcNS_9allocatorIcEEE9__end_capB8ue170006Ev, symObjAddr: 0xBCB0, symBinAddr: 0x10000D000, symSize: 0x20 }
  - { offsetInCU: 0x26A7E, offset: 0x26A7E, size: 0x8, addend: 0x0, symName: __ZNKSt3__16vectorIcNS_9allocatorIcEEE14__annotate_newB8ue170006Em, symObjAddr: 0xBCD0, symBinAddr: 0x10000D020, symSize: 0xA0 }
  - { offsetInCU: 0x26AB3, offset: 0x26AB3, size: 0x8, addend: 0x0, symName: __ZNKSt3__16vectorIcNS_9allocatorIcEEE7__allocB8ue170006Ev, symObjAddr: 0xBD70, symBinAddr: 0x10000D0C0, symSize: 0x20 }
  - { offsetInCU: 0x26AD9, offset: 0x26AD9, size: 0x8, addend: 0x0, symName: __ZNKSt3__117__compressed_pairIPcNS_9allocatorIcEEE6secondB8ue170006Ev, symObjAddr: 0xBD90, symBinAddr: 0x10000D0E0, symSize: 0x20 }
  - { offsetInCU: 0x26AFF, offset: 0x26AFF, size: 0x8, addend: 0x0, symName: __ZNSt3__117__compressed_pairIPcNS_9allocatorIcEEE6secondB8ue170006Ev, symObjAddr: 0xBDB0, symBinAddr: 0x10000D100, symSize: 0x20 }
  - { offsetInCU: 0x26B25, offset: 0x26B25, size: 0x8, addend: 0x0, symName: __ZNSt3__117__compressed_pairIPcNS_9allocatorIcEEE5firstB8ue170006Ev, symObjAddr: 0xBDD0, symBinAddr: 0x10000D120, symSize: 0x20 }
  - { offsetInCU: 0x26B4B, offset: 0x26B4B, size: 0x8, addend: 0x0, symName: __ZNSt3__122__compressed_pair_elemIPcLi0ELb0EE5__getB8ue170006Ev, symObjAddr: 0xBDF0, symBinAddr: 0x10000D140, symSize: 0x10 }
  - { offsetInCU: 0x26B71, offset: 0x26B71, size: 0x8, addend: 0x0, symName: __ZNKSt3__16vectorIcNS_9allocatorIcEEE31__annotate_contiguous_containerB8ue170006EPKvS5_S5_S5_, symObjAddr: 0xBE00, symBinAddr: 0x10000D150, symSize: 0x20 }
  - { offsetInCU: 0x26BC3, offset: 0x26BC3, size: 0x8, addend: 0x0, symName: __ZNKSt3__16vectorIcNS_9allocatorIcEEE4dataB8ue170006Ev, symObjAddr: 0xBE20, symBinAddr: 0x10000D170, symSize: 0x20 }
  - { offsetInCU: 0x26BE9, offset: 0x26BE9, size: 0x8, addend: 0x0, symName: __ZNKSt3__16vectorIcNS_9allocatorIcEEE8capacityB8ue170006Ev, symObjAddr: 0xBE40, symBinAddr: 0x10000D190, symSize: 0x30 }
  - { offsetInCU: 0x26C0F, offset: 0x26C0F, size: 0x8, addend: 0x0, symName: __ZNKSt3__16vectorIcNS_9allocatorIcEEE9__end_capB8ue170006Ev, symObjAddr: 0xBE80, symBinAddr: 0x10000D1D0, symSize: 0x20 }
  - { offsetInCU: 0x26C35, offset: 0x26C35, size: 0x8, addend: 0x0, symName: __ZNKSt3__117__compressed_pairIPcNS_9allocatorIcEEE5firstB8ue170006Ev, symObjAddr: 0xBEA0, symBinAddr: 0x10000D1F0, symSize: 0x20 }
  - { offsetInCU: 0x26C5B, offset: 0x26C5B, size: 0x8, addend: 0x0, symName: __ZNKSt3__122__compressed_pair_elemIPcLi0ELb0EE5__getB8ue170006Ev, symObjAddr: 0xBEC0, symBinAddr: 0x10000D210, symSize: 0x10 }
  - { offsetInCU: 0x26C9A, offset: 0x26C9A, size: 0x8, addend: 0x0, symName: __ZNSt3__16vectorIcNS_9allocatorIcEEE21_ConstructTransactionC1B8ue170006ERS3_m, symObjAddr: 0xBED0, symBinAddr: 0x10000D220, symSize: 0x30 }
  - { offsetInCU: 0x26CE2, offset: 0x26CE2, size: 0x8, addend: 0x0, symName: __ZNSt3__116allocator_traitsINS_9allocatorIcEEE9constructB8ue170006IcJRKcEvEEvRS2_PT_DpOT0_, symObjAddr: 0xBF00, symBinAddr: 0x10000D250, symSize: 0x30 }
  - { offsetInCU: 0x26D39, offset: 0x26D39, size: 0x8, addend: 0x0, symName: __ZNSt3__16vectorIcNS_9allocatorIcEEE21_ConstructTransactionD1B8ue170006Ev, symObjAddr: 0xBF30, symBinAddr: 0x10000D280, symSize: 0x20 }
  - { offsetInCU: 0x26D63, offset: 0x26D63, size: 0x8, addend: 0x0, symName: __ZNSt3__16vectorIcNS_9allocatorIcEEE21_ConstructTransactionC2B8ue170006ERS3_m, symObjAddr: 0xBF50, symBinAddr: 0x10000D2A0, symSize: 0x40 }
  - { offsetInCU: 0x26DAB, offset: 0x26DAB, size: 0x8, addend: 0x0, symName: __ZNSt3__19allocatorIcE9constructB8ue170006IcJRKcEEEvPT_DpOT0_, symObjAddr: 0xBF90, symBinAddr: 0x10000D2E0, symSize: 0x20 }
  - { offsetInCU: 0x26E01, offset: 0x26E01, size: 0x8, addend: 0x0, symName: __ZNSt3__16vectorIcNS_9allocatorIcEEE21_ConstructTransactionD2B8ue170006Ev, symObjAddr: 0xBFB0, symBinAddr: 0x10000D300, symSize: 0x20 }
  - { offsetInCU: 0x26E2B, offset: 0x26E2B, size: 0x8, addend: 0x0, symName: __ZNSt3__128__exception_guard_exceptionsINS_6vectorIcNS_9allocatorIcEEE16__destroy_vectorEED2B8ue170006Ev, symObjAddr: 0xBFD0, symBinAddr: 0x10000D320, symSize: 0x30 }
  - { offsetInCU: 0x26E55, offset: 0x26E55, size: 0x8, addend: 0x0, symName: __ZNSt3__16vectorIcNS_9allocatorIcEEE16__destroy_vectorclB8ue170006Ev, symObjAddr: 0xC000, symBinAddr: 0x10000D350, symSize: 0x80 }
  - { offsetInCU: 0x26E7B, offset: 0x26E7B, size: 0x8, addend: 0x0, symName: __ZNSt3__16vectorIcNS_9allocatorIcEEE7__clearB8ue170006Ev, symObjAddr: 0xC080, symBinAddr: 0x10000D3D0, symSize: 0x20 }
  - { offsetInCU: 0x26EA1, offset: 0x26EA1, size: 0x8, addend: 0x0, symName: __ZNKSt3__16vectorIcNS_9allocatorIcEEE17__annotate_deleteB8ue170006Ev, symObjAddr: 0xC0A0, symBinAddr: 0x10000D3F0, symSize: 0xA0 }
  - { offsetInCU: 0x26EC7, offset: 0x26EC7, size: 0x8, addend: 0x0, symName: __ZNSt3__116allocator_traitsINS_9allocatorIcEEE10deallocateB8ue170006ERS2_Pcm, symObjAddr: 0xC140, symBinAddr: 0x10000D490, symSize: 0x30 }
  - { offsetInCU: 0x26F09, offset: 0x26F09, size: 0x8, addend: 0x0, symName: __ZNSt3__16vectorIcNS_9allocatorIcEEE22__base_destruct_at_endB8ue170006EPc, symObjAddr: 0xC170, symBinAddr: 0x10000D4C0, symSize: 0x90 }
  - { offsetInCU: 0x26F4D, offset: 0x26F4D, size: 0x8, addend: 0x0, symName: __ZNSt3__116allocator_traitsINS_9allocatorIcEEE7destroyB8ue170006IcvEEvRS2_PT_, symObjAddr: 0xC200, symBinAddr: 0x10000D550, symSize: 0x30 }
  - { offsetInCU: 0x26F8A, offset: 0x26F8A, size: 0x8, addend: 0x0, symName: __ZNSt3__19allocatorIcE7destroyB8ue170006EPc, symObjAddr: 0xC230, symBinAddr: 0x10000D580, symSize: 0x10 }
  - { offsetInCU: 0x26FBE, offset: 0x26FBE, size: 0x8, addend: 0x0, symName: __ZNKSt3__16vectorIcNS_9allocatorIcEEE4sizeB8ue170006Ev, symObjAddr: 0xC240, symBinAddr: 0x10000D590, symSize: 0x20 }
  - { offsetInCU: 0x26FE4, offset: 0x26FE4, size: 0x8, addend: 0x0, symName: __ZNSt3__19allocatorIcE10deallocateB8ue170006EPcm, symObjAddr: 0xC260, symBinAddr: 0x10000D5B0, symSize: 0x70 }
  - { offsetInCU: 0x27026, offset: 0x27026, size: 0x8, addend: 0x0, symName: __ZNSt3__16vectorIcNS_9allocatorIcEEED2B8ue170006Ev, symObjAddr: 0xC2D0, symBinAddr: 0x10000D620, symSize: 0x30 }
  - { offsetInCU: 0x27050, offset: 0x27050, size: 0x8, addend: 0x0, symName: __ZNSt3__16vectorIcNS_9allocatorIcEEE19__copy_assign_allocB8ue170006ERKS3_, symObjAddr: 0xC300, symBinAddr: 0x10000D650, symSize: 0x30 }
  - { offsetInCU: 0x27085, offset: 0x27085, size: 0x8, addend: 0x0, symName: __ZNSt3__16vectorIcNS_9allocatorIcEEE6assignIPcLi0EEEvT_S6_, symObjAddr: 0xC330, symBinAddr: 0x10000D680, symSize: 0x60 }
  - { offsetInCU: 0x270DA, offset: 0x270DA, size: 0x8, addend: 0x0, symName: __ZNSt3__16vectorIcNS_9allocatorIcEEE19__copy_assign_allocB8ue170006ERKS3_NS_17integral_constantIbLb0EEE, symObjAddr: 0xC390, symBinAddr: 0x10000D6E0, symSize: 0x10 }
  - { offsetInCU: 0x27116, offset: 0x27116, size: 0x8, addend: 0x0, symName: __ZNSt3__16vectorIcNS_9allocatorIcEEE18__assign_with_sizeB8ue170006IPcS5_EEvT_T0_l, symObjAddr: 0xC3A0, symBinAddr: 0x10000D6F0, symSize: 0x160 }
  - { offsetInCU: 0x271C6, offset: 0x271C6, size: 0x8, addend: 0x0, symName: __ZNSt3__16vectorIcNS_9allocatorIcEEE18__construct_at_endIPcS5_EEvT_T0_m, symObjAddr: 0xC5A0, symBinAddr: 0x10000D8F0, symSize: 0xA0 }
  - { offsetInCU: 0x2723C, offset: 0x2723C, size: 0x8, addend: 0x0, symName: __ZNSt3__16vectorIcNS_9allocatorIcEEE17__destruct_at_endB8ue170006EPc, symObjAddr: 0xC680, symBinAddr: 0x10000D9D0, symSize: 0x50 }
  - { offsetInCU: 0x27280, offset: 0x27280, size: 0x8, addend: 0x0, symName: __ZNSt3__16vectorIcNS_9allocatorIcEEE13__vdeallocateEv, symObjAddr: 0xC6D0, symBinAddr: 0x10000DA20, symSize: 0x90 }
  - { offsetInCU: 0x272A8, offset: 0x272A8, size: 0x8, addend: 0x0, symName: __ZNKSt3__16vectorIcNS_9allocatorIcEEE11__recommendB8ue170006Em, symObjAddr: 0xC760, symBinAddr: 0x10000DAB0, symSize: 0xA0 }
  - { offsetInCU: 0x27316, offset: 0x27316, size: 0x8, addend: 0x0, symName: __ZNSt3__14pairIPcS1_EC1B8ue170006ERKS1_S4_, symObjAddr: 0xCAE0, symBinAddr: 0x10000DE30, symSize: 0x30 }
  - { offsetInCU: 0x2735C, offset: 0x2735C, size: 0x8, addend: 0x0, symName: __ZNSt3__14pairIPcS1_EC2B8ue170006ERKS1_S4_, symObjAddr: 0xCB10, symBinAddr: 0x10000DE60, symSize: 0x30 }
  - { offsetInCU: 0x273A2, offset: 0x273A2, size: 0x8, addend: 0x0, symName: __ZNSt3__129_AllocatorDestroyRangeReverseINS_9allocatorIcEEPcEC1B8ue170006ERS2_RS3_S6_, symObjAddr: 0xCBA0, symBinAddr: 0x10000DEF0, symSize: 0x40 }
  - { offsetInCU: 0x273F9, offset: 0x273F9, size: 0x8, addend: 0x0, symName: __ZNSt3__116allocator_traitsINS_9allocatorIcEEE9constructB8ue170006IcJRcEvEEvRS2_PT_DpOT0_, symObjAddr: 0xCBE0, symBinAddr: 0x10000DF30, symSize: 0x30 }
  - { offsetInCU: 0x27450, offset: 0x27450, size: 0x8, addend: 0x0, symName: __ZNSt3__128__exception_guard_exceptionsINS_29_AllocatorDestroyRangeReverseINS_9allocatorIcEEPcEEE10__completeB8ue170006Ev, symObjAddr: 0xCC10, symBinAddr: 0x10000DF60, symSize: 0x20 }
  - { offsetInCU: 0x27476, offset: 0x27476, size: 0x8, addend: 0x0, symName: __ZNSt3__128__exception_guard_exceptionsINS_29_AllocatorDestroyRangeReverseINS_9allocatorIcEEPcEEED1B8ue170006Ev, symObjAddr: 0xCC30, symBinAddr: 0x10000DF80, symSize: 0x20 }
  - { offsetInCU: 0x274A0, offset: 0x274A0, size: 0x8, addend: 0x0, symName: __ZNSt3__128__exception_guard_exceptionsINS_29_AllocatorDestroyRangeReverseINS_9allocatorIcEEPcEEEC1B8ue170006ES5_, symObjAddr: 0xCC50, symBinAddr: 0x10000DFA0, symSize: 0x40 }
  - { offsetInCU: 0x274D8, offset: 0x274D8, size: 0x8, addend: 0x0, symName: __ZNSt3__128__exception_guard_exceptionsINS_29_AllocatorDestroyRangeReverseINS_9allocatorIcEEPcEEEC2B8ue170006ES5_, symObjAddr: 0xCC90, symBinAddr: 0x10000DFE0, symSize: 0x30 }
  - { offsetInCU: 0x27510, offset: 0x27510, size: 0x8, addend: 0x0, symName: __ZNSt3__129_AllocatorDestroyRangeReverseINS_9allocatorIcEEPcEC2B8ue170006ERS2_RS3_S6_, symObjAddr: 0xCCC0, symBinAddr: 0x10000E010, symSize: 0x40 }
  - { offsetInCU: 0x27567, offset: 0x27567, size: 0x8, addend: 0x0, symName: __ZNSt3__19allocatorIcE9constructB8ue170006IcJRcEEEvPT_DpOT0_, symObjAddr: 0xCD00, symBinAddr: 0x10000E050, symSize: 0x20 }
  - { offsetInCU: 0x275BD, offset: 0x275BD, size: 0x8, addend: 0x0, symName: __ZNSt3__128__exception_guard_exceptionsINS_29_AllocatorDestroyRangeReverseINS_9allocatorIcEEPcEEED2B8ue170006Ev, symObjAddr: 0xCD20, symBinAddr: 0x10000E070, symSize: 0x30 }
  - { offsetInCU: 0x275E7, offset: 0x275E7, size: 0x8, addend: 0x0, symName: __ZNKSt3__129_AllocatorDestroyRangeReverseINS_9allocatorIcEEPcEclB8ue170006Ev, symObjAddr: 0xCD50, symBinAddr: 0x10000E0A0, symSize: 0x60 }
  - { offsetInCU: 0x2760D, offset: 0x2760D, size: 0x8, addend: 0x0, symName: __ZNSt3__116reverse_iteratorIPcEC1B8ue170006ES1_, symObjAddr: 0xCE20, symBinAddr: 0x10000E170, symSize: 0x30 }
  - { offsetInCU: 0x27645, offset: 0x27645, size: 0x8, addend: 0x0, symName: __ZNSt3__116reverse_iteratorIPcEppB8ue170006Ev, symObjAddr: 0xCEB0, symBinAddr: 0x10000E200, symSize: 0x20 }
  - { offsetInCU: 0x2766B, offset: 0x2766B, size: 0x8, addend: 0x0, symName: __ZNKSt3__116reverse_iteratorIPcE4baseB8ue170006Ev, symObjAddr: 0xCED0, symBinAddr: 0x10000E220, symSize: 0x20 }
  - { offsetInCU: 0x27696, offset: 0x27696, size: 0x8, addend: 0x0, symName: __ZNSt3__119__to_address_helperINS_16reverse_iteratorIPcEEvE6__callB8ue170006ERKS3_, symObjAddr: 0xCEF0, symBinAddr: 0x10000E240, symSize: 0x50 }
  - { offsetInCU: 0x276B9, offset: 0x276B9, size: 0x8, addend: 0x0, symName: __ZNKSt3__116reverse_iteratorIPcEptB8ue170006Ev, symObjAddr: 0xCF40, symBinAddr: 0x10000E290, symSize: 0x20 }
  - { offsetInCU: 0x276DF, offset: 0x276DF, size: 0x8, addend: 0x0, symName: __ZNKSt3__116reverse_iteratorIPcEdeB8ue170006Ev, symObjAddr: 0xCF60, symBinAddr: 0x10000E2B0, symSize: 0x30 }
  - { offsetInCU: 0x27713, offset: 0x27713, size: 0x8, addend: 0x0, symName: __ZNSt3__116reverse_iteratorIPcEC2B8ue170006ES1_, symObjAddr: 0xCF90, symBinAddr: 0x10000E2E0, symSize: 0x30 }
  - { offsetInCU: 0x2774B, offset: 0x2774B, size: 0x8, addend: 0x0, symName: __ZNSt3__118__unwrap_iter_implIPcLb1EE8__unwrapB8ue170006ES1_, symObjAddr: 0xCFC0, symBinAddr: 0x10000E310, symSize: 0x20 }
  - { offsetInCU: 0x2776E, offset: 0x2776E, size: 0x8, addend: 0x0, symName: __ZNSt3__118__unwrap_iter_implIPcLb1EE8__rewrapB8ue170006ES1_S1_, symObjAddr: 0xCFE0, symBinAddr: 0x10000E330, symSize: 0x40 }
  - { offsetInCU: 0x277A9, offset: 0x277A9, size: 0x8, addend: 0x0, symName: __ZNKSt3__114__copy_trivialclB8ue170006IccLi0EEENS_4pairIPT_PT0_EES4_S4_S6_, symObjAddr: 0xD110, symBinAddr: 0x10000E460, symSize: 0x40 }
  - { offsetInCU: 0x27811, offset: 0x27811, size: 0x8, addend: 0x0, symName: __ZNKSt3__16vectorIcNS_9allocatorIcEEE17__annotate_shrinkB8ue170006Em, symObjAddr: 0xD2B0, symBinAddr: 0x10000E600, symSize: 0x90 }
  - { offsetInCU: 0x27846, offset: 0x27846, size: 0x8, addend: 0x0, symName: __ZNSt3__16vectorIcNS_9allocatorIcEEE5clearB8ue170006Ev, symObjAddr: 0xD340, symBinAddr: 0x10000E690, symSize: 0x40 }
  - { offsetInCU: 0x2787B, offset: 0x2787B, size: 0x8, addend: 0x0, symName: __ZNSt3__16vectorIcNS_9allocatorIcEEE22__construct_one_at_endB8ue170006IJRKcEEEvDpOT_, symObjAddr: 0xD3A0, symBinAddr: 0x10000E6F0, symSize: 0xA0 }
  - { offsetInCU: 0x278CA, offset: 0x278CA, size: 0x8, addend: 0x0, symName: __ZNSt3__16vectorIcNS_9allocatorIcEEE21__push_back_slow_pathIRKcEEvOT_, symObjAddr: 0xD440, symBinAddr: 0x10000E790, symSize: 0xE0 }
  - { offsetInCU: 0x27928, offset: 0x27928, size: 0x8, addend: 0x0, symName: __ZNSt3__114__split_bufferIcRNS_9allocatorIcEEEC1EmmS3_, symObjAddr: 0xD520, symBinAddr: 0x10000E870, symSize: 0x40 }
  - { offsetInCU: 0x2797E, offset: 0x2797E, size: 0x8, addend: 0x0, symName: __ZNSt3__114__split_bufferIcRNS_9allocatorIcEEED1Ev, symObjAddr: 0xD680, symBinAddr: 0x10000E9D0, symSize: 0x20 }
  - { offsetInCU: 0x279AA, offset: 0x279AA, size: 0x8, addend: 0x0, symName: __ZNSt3__114__split_bufferIcRNS_9allocatorIcEEEC2EmmS3_, symObjAddr: 0xD6A0, symBinAddr: 0x10000E9F0, symSize: 0xC0 }
  - { offsetInCU: 0x27A1D, offset: 0x27A1D, size: 0x8, addend: 0x0, symName: __ZNSt3__117__compressed_pairIPcRNS_9allocatorIcEEEC1B8ue170006IDnS4_EEOT_OT0_, symObjAddr: 0xD760, symBinAddr: 0x10000EAB0, symSize: 0x30 }
  - { offsetInCU: 0x27A75, offset: 0x27A75, size: 0x8, addend: 0x0, symName: __ZNSt3__114__split_bufferIcRNS_9allocatorIcEEE7__allocB8ue170006Ev, symObjAddr: 0xD790, symBinAddr: 0x10000EAE0, symSize: 0x20 }
  - { offsetInCU: 0x27A9B, offset: 0x27A9B, size: 0x8, addend: 0x0, symName: __ZNSt3__114__split_bufferIcRNS_9allocatorIcEEE9__end_capB8ue170006Ev, symObjAddr: 0xD7B0, symBinAddr: 0x10000EB00, symSize: 0x20 }
  - { offsetInCU: 0x27AC1, offset: 0x27AC1, size: 0x8, addend: 0x0, symName: __ZNSt3__117__compressed_pairIPcRNS_9allocatorIcEEEC2B8ue170006IDnS4_EEOT_OT0_, symObjAddr: 0xD7D0, symBinAddr: 0x10000EB20, symSize: 0x40 }
  - { offsetInCU: 0x27B19, offset: 0x27B19, size: 0x8, addend: 0x0, symName: __ZNSt3__122__compressed_pair_elemIRNS_9allocatorIcEELi1ELb0EEC2B8ue170006IS3_vEEOT_, symObjAddr: 0xD810, symBinAddr: 0x10000EB60, symSize: 0x20 }
  - { offsetInCU: 0x27B5B, offset: 0x27B5B, size: 0x8, addend: 0x0, symName: __ZNSt3__117__compressed_pairIPcRNS_9allocatorIcEEE6secondB8ue170006Ev, symObjAddr: 0xD830, symBinAddr: 0x10000EB80, symSize: 0x20 }
  - { offsetInCU: 0x27B81, offset: 0x27B81, size: 0x8, addend: 0x0, symName: __ZNSt3__122__compressed_pair_elemIRNS_9allocatorIcEELi1ELb0EE5__getB8ue170006Ev, symObjAddr: 0xD850, symBinAddr: 0x10000EBA0, symSize: 0x20 }
  - { offsetInCU: 0x27BA7, offset: 0x27BA7, size: 0x8, addend: 0x0, symName: __ZNSt3__117__compressed_pairIPcRNS_9allocatorIcEEE5firstB8ue170006Ev, symObjAddr: 0xD870, symBinAddr: 0x10000EBC0, symSize: 0x20 }
  - { offsetInCU: 0x27BE6, offset: 0x27BE6, size: 0x8, addend: 0x0, symName: __ZNKSt3__111__move_loopINS_17_ClassicAlgPolicyEEclB8ue170006INS_16reverse_iteratorIPcEES6_S6_EENS_4pairIT_T1_EES8_T0_S9_, symObjAddr: 0xDE60, symBinAddr: 0x10000F1B0, symSize: 0xA0 }
  - { offsetInCU: 0x27C56, offset: 0x27C56, size: 0x8, addend: 0x0, symName: __ZNSt3__18_IterOpsINS_17_ClassicAlgPolicyEE11__iter_moveB8ue170006IRNS_16reverse_iteratorIPcEEEENS_9enable_ifIXsr12is_referenceIDTdeclsr3stdE7declvalIRT_EEEEE5valueEDTclsr3stdE4movedeclsr3stdE7declvalISA_EEEEE4typeEOS9_, symObjAddr: 0xE050, symBinAddr: 0x10000F3A0, symSize: 0x20 }
  - { offsetInCU: 0x27C82, offset: 0x27C82, size: 0x8, addend: 0x0, symName: __ZNSt3__18_IterOpsINS_17_ClassicAlgPolicyEE25__validate_iter_referenceB8ue170006IRNS_16reverse_iteratorIPcEEEEvv, symObjAddr: 0xE070, symBinAddr: 0x10000F3C0, symSize: 0x10 }
  - { offsetInCU: 0x27CA0, offset: 0x27CA0, size: 0x8, addend: 0x0, symName: __ZNSt3__118__unwrap_iter_implINS_16reverse_iteratorIPcEELb0EE8__unwrapB8ue170006ES3_, symObjAddr: 0xE080, symBinAddr: 0x10000F3D0, symSize: 0x20 }
  - { offsetInCU: 0x27CC3, offset: 0x27CC3, size: 0x8, addend: 0x0, symName: __ZNSt3__14pairINS_16reverse_iteratorIPcEES3_EC1B8ue170006ERKS3_S6_, symObjAddr: 0xE0A0, symBinAddr: 0x10000F3F0, symSize: 0x30 }
  - { offsetInCU: 0x27D09, offset: 0x27D09, size: 0x8, addend: 0x0, symName: __ZNSt3__14pairINS_16reverse_iteratorIPcEES3_EC2B8ue170006ERKS3_S6_, symObjAddr: 0xE0D0, symBinAddr: 0x10000F420, symSize: 0x40 }
  - { offsetInCU: 0x27D4F, offset: 0x27D4F, size: 0x8, addend: 0x0, symName: __ZNSt3__118__unwrap_iter_implINS_16reverse_iteratorIPcEELb0EE8__rewrapB8ue170006ES3_S3_, symObjAddr: 0xE110, symBinAddr: 0x10000F460, symSize: 0x30 }
  - { offsetInCU: 0x27D7C, offset: 0x27D7C, size: 0x8, addend: 0x0, symName: __ZNSt3__114__split_bufferIcRNS_9allocatorIcEEED2Ev, symObjAddr: 0xE140, symBinAddr: 0x10000F490, symSize: 0x60 }
  - { offsetInCU: 0x27DA8, offset: 0x27DA8, size: 0x8, addend: 0x0, symName: __ZNSt3__114__split_bufferIcRNS_9allocatorIcEEE5clearB8ue170006Ev, symObjAddr: 0xE1A0, symBinAddr: 0x10000F4F0, symSize: 0x20 }
  - { offsetInCU: 0x27DCE, offset: 0x27DCE, size: 0x8, addend: 0x0, symName: __ZNKSt3__114__split_bufferIcRNS_9allocatorIcEEE8capacityB8ue170006Ev, symObjAddr: 0xE1C0, symBinAddr: 0x10000F510, symSize: 0x30 }
  - { offsetInCU: 0x27DF4, offset: 0x27DF4, size: 0x8, addend: 0x0, symName: __ZNSt3__114__split_bufferIcRNS_9allocatorIcEEE17__destruct_at_endB8ue170006EPc, symObjAddr: 0xE1F0, symBinAddr: 0x10000F540, symSize: 0x30 }
  - { offsetInCU: 0x27E28, offset: 0x27E28, size: 0x8, addend: 0x0, symName: __ZNSt3__114__split_bufferIcRNS_9allocatorIcEEE17__destruct_at_endB8ue170006EPcNS_17integral_constantIbLb0EEE, symObjAddr: 0xE220, symBinAddr: 0x10000F570, symSize: 0x80 }
  - { offsetInCU: 0x27E68, offset: 0x27E68, size: 0x8, addend: 0x0, symName: __ZNKSt3__114__split_bufferIcRNS_9allocatorIcEEE9__end_capB8ue170006Ev, symObjAddr: 0xE2A0, symBinAddr: 0x10000F5F0, symSize: 0x20 }
  - { offsetInCU: 0x27E8E, offset: 0x27E8E, size: 0x8, addend: 0x0, symName: __ZNKSt3__117__compressed_pairIPcRNS_9allocatorIcEEE5firstB8ue170006Ev, symObjAddr: 0xE2C0, symBinAddr: 0x10000F610, symSize: 0x20 }
  - { offsetInCU: 0x27EB4, offset: 0x27EB4, size: 0x8, addend: 0x0, symName: __ZNSt3__16vectorIbNS_9allocatorIbEEEC2EmRKb, symObjAddr: 0xE2E0, symBinAddr: 0x10000F630, symSize: 0x80 }
  - { offsetInCU: 0x27F03, offset: 0x27F03, size: 0x8, addend: 0x0, symName: __ZNSt3__117__compressed_pairImNS_9allocatorImEEEC1B8ue170006IiNS_18__default_init_tagEEEOT_OT0_, symObjAddr: 0xE360, symBinAddr: 0x10000F6B0, symSize: 0x30 }
  - { offsetInCU: 0x27F5B, offset: 0x27F5B, size: 0x8, addend: 0x0, symName: __ZNSt3__16vectorIbNS_9allocatorIbEEE11__vallocateB8ue170006Em, symObjAddr: 0xE390, symBinAddr: 0x10000F6E0, symSize: 0x110 }
  - { offsetInCU: 0x27FBC, offset: 0x27FBC, size: 0x8, addend: 0x0, symName: __ZNSt3__16vectorIbNS_9allocatorIbEEE18__construct_at_endB8ue170006Emb, symObjAddr: 0xE4A0, symBinAddr: 0x10000F7F0, symSize: 0xE0 }
  - { offsetInCU: 0x28011, offset: 0x28011, size: 0x8, addend: 0x0, symName: __ZNSt3__117__compressed_pairImNS_9allocatorImEEEC2B8ue170006IiNS_18__default_init_tagEEEOT_OT0_, symObjAddr: 0xE580, symBinAddr: 0x10000F8D0, symSize: 0x40 }
  - { offsetInCU: 0x28069, offset: 0x28069, size: 0x8, addend: 0x0, symName: __ZNSt3__122__compressed_pair_elemImLi0ELb0EEC2B8ue170006IivEEOT_, symObjAddr: 0xE5C0, symBinAddr: 0x10000F910, symSize: 0x20 }
  - { offsetInCU: 0x280AB, offset: 0x280AB, size: 0x8, addend: 0x0, symName: __ZNSt3__122__compressed_pair_elemINS_9allocatorImEELi1ELb1EEC2B8ue170006ENS_18__default_init_tagE, symObjAddr: 0xE5E0, symBinAddr: 0x10000F930, symSize: 0x20 }
  - { offsetInCU: 0x280DF, offset: 0x280DF, size: 0x8, addend: 0x0, symName: __ZNSt3__19allocatorImEC2B8ue170006Ev, symObjAddr: 0xE600, symBinAddr: 0x10000F950, symSize: 0x20 }
  - { offsetInCU: 0x28109, offset: 0x28109, size: 0x8, addend: 0x0, symName: __ZNSt3__116__non_trivial_ifILb1ENS_9allocatorImEEEC2B8ue170006Ev, symObjAddr: 0xE620, symBinAddr: 0x10000F970, symSize: 0x10 }
  - { offsetInCU: 0x28133, offset: 0x28133, size: 0x8, addend: 0x0, symName: __ZNKSt3__16vectorIbNS_9allocatorIbEEE8max_sizeEv, symObjAddr: 0xE630, symBinAddr: 0x10000F980, symSize: 0x70 }
  - { offsetInCU: 0x28179, offset: 0x28179, size: 0x8, addend: 0x0, symName: __ZNKSt3__16vectorIbNS_9allocatorIbEEE20__throw_length_errorB8ue170006Ev, symObjAddr: 0xE6A0, symBinAddr: 0x10000F9F0, symSize: 0x20 }
  - { offsetInCU: 0x2819F, offset: 0x2819F, size: 0x8, addend: 0x0, symName: __ZNSt3__16vectorIbNS_9allocatorIbEEE7__allocB8ue170006Ev, symObjAddr: 0xE700, symBinAddr: 0x10000FA50, symSize: 0x20 }
  - { offsetInCU: 0x281C5, offset: 0x281C5, size: 0x8, addend: 0x0, symName: __ZNSt3__16vectorIbNS_9allocatorIbEEE26__external_cap_to_internalB8ue170006Em, symObjAddr: 0xE720, symBinAddr: 0x10000FA70, symSize: 0x20 }
  - { offsetInCU: 0x281E9, offset: 0x281E9, size: 0x8, addend: 0x0, symName: __ZNSt3__16vectorIbNS_9allocatorIbEEE5__capB8ue170006Ev, symObjAddr: 0xE740, symBinAddr: 0x10000FA90, symSize: 0x20 }
  - { offsetInCU: 0x28219, offset: 0x28219, size: 0x8, addend: 0x0, symName: __ZNSt3__116allocator_traitsINS_9allocatorImEEE8max_sizeB8ue170006IS2_vEEmRKS2_, symObjAddr: 0xE790, symBinAddr: 0x10000FAE0, symSize: 0x20 }
  - { offsetInCU: 0x28247, offset: 0x28247, size: 0x8, addend: 0x0, symName: __ZNKSt3__16vectorIbNS_9allocatorIbEEE7__allocB8ue170006Ev, symObjAddr: 0xE7B0, symBinAddr: 0x10000FB00, symSize: 0x20 }
  - { offsetInCU: 0x2826D, offset: 0x2826D, size: 0x8, addend: 0x0, symName: __ZNSt3__16vectorIbNS_9allocatorIbEEE26__internal_cap_to_externalB8ue170006Em, symObjAddr: 0xE7D0, symBinAddr: 0x10000FB20, symSize: 0x20 }
  - { offsetInCU: 0x28291, offset: 0x28291, size: 0x8, addend: 0x0, symName: __ZNKSt3__19allocatorImE8max_sizeB8ue170006Ev, symObjAddr: 0xE7F0, symBinAddr: 0x10000FB40, symSize: 0x20 }
  - { offsetInCU: 0x282B7, offset: 0x282B7, size: 0x8, addend: 0x0, symName: __ZNKSt3__117__compressed_pairImNS_9allocatorImEEE6secondB8ue170006Ev, symObjAddr: 0xE810, symBinAddr: 0x10000FB60, symSize: 0x20 }
  - { offsetInCU: 0x282DD, offset: 0x282DD, size: 0x8, addend: 0x0, symName: __ZNKSt3__122__compressed_pair_elemINS_9allocatorImEELi1ELb1EE5__getB8ue170006Ev, symObjAddr: 0xE830, symBinAddr: 0x10000FB80, symSize: 0x10 }
  - { offsetInCU: 0x28303, offset: 0x28303, size: 0x8, addend: 0x0, symName: __ZNSt3__19allocatorImE8allocateB8ue170006Em, symObjAddr: 0xE840, symBinAddr: 0x10000FB90, symSize: 0x80 }
  - { offsetInCU: 0x28337, offset: 0x28337, size: 0x8, addend: 0x0, symName: __ZNSt3__117__compressed_pairImNS_9allocatorImEEE6secondB8ue170006Ev, symObjAddr: 0xE8C0, symBinAddr: 0x10000FC10, symSize: 0x20 }
  - { offsetInCU: 0x2835D, offset: 0x2835D, size: 0x8, addend: 0x0, symName: __ZNSt3__122__compressed_pair_elemINS_9allocatorImEELi1ELb1EE5__getB8ue170006Ev, symObjAddr: 0xE8E0, symBinAddr: 0x10000FC30, symSize: 0x10 }
  - { offsetInCU: 0x28383, offset: 0x28383, size: 0x8, addend: 0x0, symName: __ZNSt3__117__compressed_pairImNS_9allocatorImEEE5firstB8ue170006Ev, symObjAddr: 0xE8F0, symBinAddr: 0x10000FC40, symSize: 0x20 }
  - { offsetInCU: 0x283A9, offset: 0x283A9, size: 0x8, addend: 0x0, symName: __ZNSt3__122__compressed_pair_elemImLi0ELb0EE5__getB8ue170006Ev, symObjAddr: 0xE910, symBinAddr: 0x10000FC60, symSize: 0x10 }
  - { offsetInCU: 0x283CF, offset: 0x283CF, size: 0x8, addend: 0x0, symName: __ZNSt3__16vectorIbNS_9allocatorIbEEE11__make_iterB8ue170006Em, symObjAddr: 0xE9A0, symBinAddr: 0x10000FCF0, symSize: 0x50 }
  - { offsetInCU: 0x28404, offset: 0x28404, size: 0x8, addend: 0x0, symName: __ZNSt3__114__bit_iteratorINS_6vectorIbNS_9allocatorIbEEEELb0ELm0EEC1B8ue170006ERKS5_, symObjAddr: 0xEB30, symBinAddr: 0x10000FE80, symSize: 0x30 }
  - { offsetInCU: 0x2843D, offset: 0x2843D, size: 0x8, addend: 0x0, symName: __ZNSt3__114__bit_iteratorINS_6vectorIbNS_9allocatorIbEEEELb0ELm0EEC2B8ue170006ERKS5_, symObjAddr: 0xED40, symBinAddr: 0x100010090, symSize: 0x30 }
  - { offsetInCU: 0x28476, offset: 0x28476, size: 0x8, addend: 0x0, symName: __ZNSt3__114__bit_iteratorINS_6vectorIbNS_9allocatorIbEEEELb0ELm0EEC1B8ue170006EPmj, symObjAddr: 0xEE00, symBinAddr: 0x100010150, symSize: 0x30 }
  - { offsetInCU: 0x284BE, offset: 0x284BE, size: 0x8, addend: 0x0, symName: __ZNSt3__114__bit_iteratorINS_6vectorIbNS_9allocatorIbEEEELb0ELm0EEC2B8ue170006EPmj, symObjAddr: 0xEE30, symBinAddr: 0x100010180, symSize: 0x30 }
  - { offsetInCU: 0x28506, offset: 0x28506, size: 0x8, addend: 0x0, symName: __ZNSt3__16vectorIbNS_9allocatorIbEEED2B8ue170006Ev, symObjAddr: 0xEE60, symBinAddr: 0x1000101B0, symSize: 0x30 }
  - { offsetInCU: 0x28530, offset: 0x28530, size: 0x8, addend: 0x0, symName: __ZNSt3__16vectorIbNS_9allocatorIbEEE16__destroy_vectorC1B8ue170006ERS3_, symObjAddr: 0xEE90, symBinAddr: 0x1000101E0, symSize: 0x30 }
  - { offsetInCU: 0x28569, offset: 0x28569, size: 0x8, addend: 0x0, symName: __ZNSt3__16vectorIbNS_9allocatorIbEEE16__destroy_vectorclB8ue170006Ev, symObjAddr: 0xEEC0, symBinAddr: 0x100010210, symSize: 0x60 }
  - { offsetInCU: 0x2858F, offset: 0x2858F, size: 0x8, addend: 0x0, symName: __ZNSt3__16vectorIbNS_9allocatorIbEEE16__destroy_vectorC2B8ue170006ERS3_, symObjAddr: 0xEF20, symBinAddr: 0x100010270, symSize: 0x20 }
  - { offsetInCU: 0x285C8, offset: 0x285C8, size: 0x8, addend: 0x0, symName: __ZNSt3__116allocator_traitsINS_9allocatorImEEE10deallocateB8ue170006ERS2_Pmm, symObjAddr: 0xEF40, symBinAddr: 0x100010290, symSize: 0x30 }
  - { offsetInCU: 0x2860A, offset: 0x2860A, size: 0x8, addend: 0x0, symName: __ZNSt3__19allocatorImE10deallocateB8ue170006EPmm, symObjAddr: 0xEF70, symBinAddr: 0x1000102C0, symSize: 0x70 }
  - { offsetInCU: 0x2864C, offset: 0x2864C, size: 0x8, addend: 0x0, symName: __ZNSt3__16vectorIcNS_9allocatorIcEEEC2B8ue170006Ev, symObjAddr: 0xEFE0, symBinAddr: 0x100010330, symSize: 0x40 }
  - { offsetInCU: 0x28676, offset: 0x28676, size: 0x8, addend: 0x0, symName: __ZNSt3__115basic_streambufIcNS_11char_traitsIcEEE5sgetcB8ue170006Ev, symObjAddr: 0xF020, symBinAddr: 0x100010370, symSize: 0x50 }
  - { offsetInCU: 0x2869C, offset: 0x2869C, size: 0x8, addend: 0x0, symName: __ZNKSt3__15ctypeIcE2isB8ue170006Ejc, symObjAddr: 0xF070, symBinAddr: 0x1000103C0, symSize: 0x70 }
  - { offsetInCU: 0x286DF, offset: 0x286DF, size: 0x8, addend: 0x0, symName: __Z7isasciii, symObjAddr: 0xF0E0, symBinAddr: 0x100010430, symSize: 0x20 }
  - { offsetInCU: 0x2870C, offset: 0x2870C, size: 0x8, addend: 0x0, symName: __ZNSt3__16vectorINS_12basic_stringIcNS_11char_traitsIcEENS_9allocatorIcEEEENS4_IS6_EEEC2ERKS8_, symObjAddr: 0xF100, symBinAddr: 0x100010450, symSize: 0xA0 }
  - { offsetInCU: 0x28747, offset: 0x28747, size: 0x8, addend: 0x0, symName: __ZNSt3__116allocator_traitsINS_9allocatorINS_12basic_stringIcNS_11char_traitsIcEENS1_IcEEEEEEE37select_on_container_copy_constructionB8ue170006IS7_vvEES7_RKS7_, symObjAddr: 0xF1A0, symBinAddr: 0x1000104F0, symSize: 0x10 }
  - { offsetInCU: 0x2877B, offset: 0x2877B, size: 0x8, addend: 0x0, symName: __ZNSt3__117__compressed_pairIPNS_12basic_stringIcNS_11char_traitsIcEENS_9allocatorIcEEEENS4_IS6_EEEC1B8ue170006IDnS8_EEOT_OT0_, symObjAddr: 0xF1B0, symBinAddr: 0x100010500, symSize: 0x30 }
  - { offsetInCU: 0x287D3, offset: 0x287D3, size: 0x8, addend: 0x0, symName: __ZNSt3__16vectorINS_12basic_stringIcNS_11char_traitsIcEENS_9allocatorIcEEEENS4_IS6_EEE16__init_with_sizeB8ue170006IPS6_SA_EEvT_T0_m, symObjAddr: 0xF1E0, symBinAddr: 0x100010530, symSize: 0xC0 }
  - { offsetInCU: 0x28847, offset: 0x28847, size: 0x8, addend: 0x0, symName: __ZNSt3__117__compressed_pairIPNS_12basic_stringIcNS_11char_traitsIcEENS_9allocatorIcEEEENS4_IS6_EEEC2B8ue170006IDnS8_EEOT_OT0_, symObjAddr: 0xF2A0, symBinAddr: 0x1000105F0, symSize: 0x40 }
  - { offsetInCU: 0x2889F, offset: 0x2889F, size: 0x8, addend: 0x0, symName: __ZNSt3__122__compressed_pair_elemINS_9allocatorINS_12basic_stringIcNS_11char_traitsIcEENS1_IcEEEEEELi1ELb1EEC2B8ue170006IS7_vEEOT_, symObjAddr: 0xF2E0, symBinAddr: 0x100010630, symSize: 0x10 }
  - { offsetInCU: 0x288E1, offset: 0x288E1, size: 0x8, addend: 0x0, symName: __ZNSt3__16vectorINS_12basic_stringIcNS_11char_traitsIcEENS_9allocatorIcEEEENS4_IS6_EEE11__vallocateB8ue170006Em, symObjAddr: 0xF330, symBinAddr: 0x100010680, symSize: 0xA0 }
  - { offsetInCU: 0x28925, offset: 0x28925, size: 0x8, addend: 0x0, symName: __ZNSt3__16vectorINS_12basic_stringIcNS_11char_traitsIcEENS_9allocatorIcEEEENS4_IS6_EEE18__construct_at_endIPS6_SA_EEvT_T0_m, symObjAddr: 0xF3D0, symBinAddr: 0x100010720, symSize: 0xA0 }
  - { offsetInCU: 0x2899B, offset: 0x2899B, size: 0x8, addend: 0x0, symName: __ZNSt3__128__exception_guard_exceptionsINS_6vectorINS_12basic_stringIcNS_11char_traitsIcEENS_9allocatorIcEEEENS5_IS7_EEE16__destroy_vectorEE10__completeB8ue170006Ev, symObjAddr: 0xF470, symBinAddr: 0x1000107C0, symSize: 0x20 }
  - { offsetInCU: 0x289C1, offset: 0x289C1, size: 0x8, addend: 0x0, symName: __ZNSt3__128__exception_guard_exceptionsINS_6vectorINS_12basic_stringIcNS_11char_traitsIcEENS_9allocatorIcEEEENS5_IS7_EEE16__destroy_vectorEED1B8ue170006Ev, symObjAddr: 0xF490, symBinAddr: 0x1000107E0, symSize: 0x20 }
  - { offsetInCU: 0x289EB, offset: 0x289EB, size: 0x8, addend: 0x0, symName: __ZNSt3__128__exception_guard_exceptionsINS_6vectorINS_12basic_stringIcNS_11char_traitsIcEENS_9allocatorIcEEEENS5_IS7_EEE16__destroy_vectorEEC1B8ue170006ESA_, symObjAddr: 0xF4B0, symBinAddr: 0x100010800, symSize: 0x30 }
  - { offsetInCU: 0x28A23, offset: 0x28A23, size: 0x8, addend: 0x0, symName: __ZNSt3__128__exception_guard_exceptionsINS_6vectorINS_12basic_stringIcNS_11char_traitsIcEENS_9allocatorIcEEEENS5_IS7_EEE16__destroy_vectorEEC2B8ue170006ESA_, symObjAddr: 0xF4E0, symBinAddr: 0x100010830, symSize: 0x20 }
  - { offsetInCU: 0x28A74, offset: 0x28A74, size: 0x8, addend: 0x0, symName: __ZNSt3__14pairIPNS_12basic_stringIcNS_11char_traitsIcEENS_9allocatorIcEEEES7_EC1B8ue170006ERKS7_SA_, symObjAddr: 0xF780, symBinAddr: 0x100010AD0, symSize: 0x30 }
  - { offsetInCU: 0x28ABA, offset: 0x28ABA, size: 0x8, addend: 0x0, symName: __ZNSt3__14pairIPNS_12basic_stringIcNS_11char_traitsIcEENS_9allocatorIcEEEES7_EC2B8ue170006ERKS7_SA_, symObjAddr: 0xF7B0, symBinAddr: 0x100010B00, symSize: 0x30 }
  - { offsetInCU: 0x28B00, offset: 0x28B00, size: 0x8, addend: 0x0, symName: __ZNSt3__129_AllocatorDestroyRangeReverseINS_9allocatorINS_12basic_stringIcNS_11char_traitsIcEENS1_IcEEEEEEPS6_EC1B8ue170006ERS7_RS8_SB_, symObjAddr: 0xF840, symBinAddr: 0x100010B90, symSize: 0x40 }
  - { offsetInCU: 0x28B57, offset: 0x28B57, size: 0x8, addend: 0x0, symName: __ZNSt3__116allocator_traitsINS_9allocatorINS_12basic_stringIcNS_11char_traitsIcEENS1_IcEEEEEEE9constructB8ue170006IS6_JRS6_EvEEvRS7_PT_DpOT0_, symObjAddr: 0xF880, symBinAddr: 0x100010BD0, symSize: 0x30 }
  - { offsetInCU: 0x28BAE, offset: 0x28BAE, size: 0x8, addend: 0x0, symName: __ZNSt3__128__exception_guard_exceptionsINS_29_AllocatorDestroyRangeReverseINS_9allocatorINS_12basic_stringIcNS_11char_traitsIcEENS2_IcEEEEEEPS7_EEE10__completeB8ue170006Ev, symObjAddr: 0xF8B0, symBinAddr: 0x100010C00, symSize: 0x20 }
  - { offsetInCU: 0x28BD4, offset: 0x28BD4, size: 0x8, addend: 0x0, symName: __ZNSt3__128__exception_guard_exceptionsINS_29_AllocatorDestroyRangeReverseINS_9allocatorINS_12basic_stringIcNS_11char_traitsIcEENS2_IcEEEEEEPS7_EEED1B8ue170006Ev, symObjAddr: 0xF8D0, symBinAddr: 0x100010C20, symSize: 0x20 }
  - { offsetInCU: 0x28BFE, offset: 0x28BFE, size: 0x8, addend: 0x0, symName: __ZNSt3__128__exception_guard_exceptionsINS_29_AllocatorDestroyRangeReverseINS_9allocatorINS_12basic_stringIcNS_11char_traitsIcEENS2_IcEEEEEEPS7_EEEC1B8ue170006ESA_, symObjAddr: 0xF8F0, symBinAddr: 0x100010C40, symSize: 0x40 }
  - { offsetInCU: 0x28C36, offset: 0x28C36, size: 0x8, addend: 0x0, symName: __ZNSt3__128__exception_guard_exceptionsINS_29_AllocatorDestroyRangeReverseINS_9allocatorINS_12basic_stringIcNS_11char_traitsIcEENS2_IcEEEEEEPS7_EEEC2B8ue170006ESA_, symObjAddr: 0xF930, symBinAddr: 0x100010C80, symSize: 0x30 }
  - { offsetInCU: 0x28C6E, offset: 0x28C6E, size: 0x8, addend: 0x0, symName: __ZNSt3__129_AllocatorDestroyRangeReverseINS_9allocatorINS_12basic_stringIcNS_11char_traitsIcEENS1_IcEEEEEEPS6_EC2B8ue170006ERS7_RS8_SB_, symObjAddr: 0xF960, symBinAddr: 0x100010CB0, symSize: 0x40 }
  - { offsetInCU: 0x28CC5, offset: 0x28CC5, size: 0x8, addend: 0x0, symName: __ZNSt3__19allocatorINS_12basic_stringIcNS_11char_traitsIcEENS0_IcEEEEE9constructB8ue170006IS5_JRS5_EEEvPT_DpOT0_, symObjAddr: 0xF9A0, symBinAddr: 0x100010CF0, symSize: 0x30 }
  - { offsetInCU: 0x28D1B, offset: 0x28D1B, size: 0x8, addend: 0x0, symName: __ZNSt3__128__exception_guard_exceptionsINS_29_AllocatorDestroyRangeReverseINS_9allocatorINS_12basic_stringIcNS_11char_traitsIcEENS2_IcEEEEEEPS7_EEED2B8ue170006Ev, symObjAddr: 0xF9D0, symBinAddr: 0x100010D20, symSize: 0x30 }
  - { offsetInCU: 0x28D45, offset: 0x28D45, size: 0x8, addend: 0x0, symName: __ZNKSt3__129_AllocatorDestroyRangeReverseINS_9allocatorINS_12basic_stringIcNS_11char_traitsIcEENS1_IcEEEEEEPS6_EclB8ue170006Ev, symObjAddr: 0xFA00, symBinAddr: 0x100010D50, symSize: 0x60 }
  - { offsetInCU: 0x28D6B, offset: 0x28D6B, size: 0x8, addend: 0x0, symName: __ZNSt3__118__unwrap_iter_implIPNS_12basic_stringIcNS_11char_traitsIcEENS_9allocatorIcEEEELb1EE8__unwrapB8ue170006ES7_, symObjAddr: 0xFAD0, symBinAddr: 0x100010E20, symSize: 0x20 }
  - { offsetInCU: 0x28D8E, offset: 0x28D8E, size: 0x8, addend: 0x0, symName: __ZNSt3__118__unwrap_iter_implIPNS_12basic_stringIcNS_11char_traitsIcEENS_9allocatorIcEEEELb1EE8__rewrapB8ue170006ES7_S7_, symObjAddr: 0xFAF0, symBinAddr: 0x100010E40, symSize: 0x60 }
  - { offsetInCU: 0x28DBF, offset: 0x28DBF, size: 0x8, addend: 0x0, symName: __ZNSt3__128__exception_guard_exceptionsINS_6vectorINS_12basic_stringIcNS_11char_traitsIcEENS_9allocatorIcEEEENS5_IS7_EEE16__destroy_vectorEED2B8ue170006Ev, symObjAddr: 0xFB50, symBinAddr: 0x100010EA0, symSize: 0x30 }
  - { offsetInCU: 0x28DE9, offset: 0x28DE9, size: 0x8, addend: 0x0, symName: __ZNSt3__16vectorIdNS_9allocatorIdEEEC2B8ue170006Ev, symObjAddr: 0xFB80, symBinAddr: 0x100010ED0, symSize: 0x40 }
  - { offsetInCU: 0x28E13, offset: 0x28E13, size: 0x8, addend: 0x0, symName: __ZNSt3__117__compressed_pairIPdNS_9allocatorIdEEEC1B8ue170006IDnNS_18__default_init_tagEEEOT_OT0_, symObjAddr: 0xFBC0, symBinAddr: 0x100010F10, symSize: 0x30 }
  - { offsetInCU: 0x28E6B, offset: 0x28E6B, size: 0x8, addend: 0x0, symName: __ZNSt3__117__compressed_pairIPdNS_9allocatorIdEEEC2B8ue170006IDnNS_18__default_init_tagEEEOT_OT0_, symObjAddr: 0xFBF0, symBinAddr: 0x100010F40, symSize: 0x40 }
  - { offsetInCU: 0x28EC3, offset: 0x28EC3, size: 0x8, addend: 0x0, symName: __ZNSt3__122__compressed_pair_elemIPdLi0ELb0EEC2B8ue170006IDnvEEOT_, symObjAddr: 0xFC30, symBinAddr: 0x100010F80, symSize: 0x20 }
  - { offsetInCU: 0x28F05, offset: 0x28F05, size: 0x8, addend: 0x0, symName: __ZNSt3__122__compressed_pair_elemINS_9allocatorIdEELi1ELb1EEC2B8ue170006ENS_18__default_init_tagE, symObjAddr: 0xFC50, symBinAddr: 0x100010FA0, symSize: 0x20 }
  - { offsetInCU: 0x28F39, offset: 0x28F39, size: 0x8, addend: 0x0, symName: __ZNSt3__19allocatorIdEC2B8ue170006Ev, symObjAddr: 0xFC70, symBinAddr: 0x100010FC0, symSize: 0x20 }
  - { offsetInCU: 0x28F63, offset: 0x28F63, size: 0x8, addend: 0x0, symName: __ZNSt3__116__non_trivial_ifILb1ENS_9allocatorIdEEEC2B8ue170006Ev, symObjAddr: 0xFC90, symBinAddr: 0x100010FE0, symSize: 0x10 }
  - { offsetInCU: 0x28F8D, offset: 0x28F8D, size: 0x8, addend: 0x0, symName: __ZNSt3__16vectorIdNS_9allocatorIdEEED2B8ue170006Ev, symObjAddr: 0xFCA0, symBinAddr: 0x100010FF0, symSize: 0x30 }
  - { offsetInCU: 0x28FB7, offset: 0x28FB7, size: 0x8, addend: 0x0, symName: __ZNSt3__16vectorIdNS_9allocatorIdEEE16__destroy_vectorC1B8ue170006ERS3_, symObjAddr: 0xFCD0, symBinAddr: 0x100011020, symSize: 0x30 }
  - { offsetInCU: 0x28FF0, offset: 0x28FF0, size: 0x8, addend: 0x0, symName: __ZNSt3__16vectorIdNS_9allocatorIdEEE16__destroy_vectorclB8ue170006Ev, symObjAddr: 0xFD00, symBinAddr: 0x100011050, symSize: 0x80 }
  - { offsetInCU: 0x29016, offset: 0x29016, size: 0x8, addend: 0x0, symName: __ZNSt3__16vectorIdNS_9allocatorIdEEE16__destroy_vectorC2B8ue170006ERS3_, symObjAddr: 0xFD80, symBinAddr: 0x1000110D0, symSize: 0x20 }
  - { offsetInCU: 0x2904F, offset: 0x2904F, size: 0x8, addend: 0x0, symName: __ZNSt3__16vectorIdNS_9allocatorIdEEE7__clearB8ue170006Ev, symObjAddr: 0xFDA0, symBinAddr: 0x1000110F0, symSize: 0x20 }
  - { offsetInCU: 0x29075, offset: 0x29075, size: 0x8, addend: 0x0, symName: __ZNKSt3__16vectorIdNS_9allocatorIdEEE17__annotate_deleteB8ue170006Ev, symObjAddr: 0xFDC0, symBinAddr: 0x100011110, symSize: 0xB0 }
  - { offsetInCU: 0x2909B, offset: 0x2909B, size: 0x8, addend: 0x0, symName: __ZNSt3__116allocator_traitsINS_9allocatorIdEEE10deallocateB8ue170006ERS2_Pdm, symObjAddr: 0xFE70, symBinAddr: 0x1000111C0, symSize: 0x30 }
  - { offsetInCU: 0x290DD, offset: 0x290DD, size: 0x8, addend: 0x0, symName: __ZNSt3__16vectorIdNS_9allocatorIdEEE7__allocB8ue170006Ev, symObjAddr: 0xFEA0, symBinAddr: 0x1000111F0, symSize: 0x20 }
  - { offsetInCU: 0x29103, offset: 0x29103, size: 0x8, addend: 0x0, symName: __ZNKSt3__16vectorIdNS_9allocatorIdEEE8capacityB8ue170006Ev, symObjAddr: 0xFEC0, symBinAddr: 0x100011210, symSize: 0x30 }
  - { offsetInCU: 0x29129, offset: 0x29129, size: 0x8, addend: 0x0, symName: __ZNSt3__16vectorIdNS_9allocatorIdEEE22__base_destruct_at_endB8ue170006EPd, symObjAddr: 0xFEF0, symBinAddr: 0x100011240, symSize: 0x90 }
  - { offsetInCU: 0x2916D, offset: 0x2916D, size: 0x8, addend: 0x0, symName: __ZNSt3__116allocator_traitsINS_9allocatorIdEEE7destroyB8ue170006IdvEEvRS2_PT_, symObjAddr: 0xFF80, symBinAddr: 0x1000112D0, symSize: 0x30 }
  - { offsetInCU: 0x291AA, offset: 0x291AA, size: 0x8, addend: 0x0, symName: __ZNSt3__19allocatorIdE7destroyB8ue170006EPd, symObjAddr: 0xFFC0, symBinAddr: 0x100011310, symSize: 0x10 }
  - { offsetInCU: 0x291DE, offset: 0x291DE, size: 0x8, addend: 0x0, symName: __ZNKSt3__16vectorIdNS_9allocatorIdEEE31__annotate_contiguous_containerB8ue170006EPKvS5_S5_S5_, symObjAddr: 0xFFD0, symBinAddr: 0x100011320, symSize: 0x20 }
  - { offsetInCU: 0x29230, offset: 0x29230, size: 0x8, addend: 0x0, symName: __ZNKSt3__16vectorIdNS_9allocatorIdEEE4dataB8ue170006Ev, symObjAddr: 0xFFF0, symBinAddr: 0x100011340, symSize: 0x20 }
  - { offsetInCU: 0x29256, offset: 0x29256, size: 0x8, addend: 0x0, symName: __ZNSt3__19allocatorIdE10deallocateB8ue170006EPdm, symObjAddr: 0x10010, symBinAddr: 0x100011360, symSize: 0x70 }
  - { offsetInCU: 0x29298, offset: 0x29298, size: 0x8, addend: 0x0, symName: __ZNSt3__117__compressed_pairIPdNS_9allocatorIdEEE6secondB8ue170006Ev, symObjAddr: 0x10080, symBinAddr: 0x1000113D0, symSize: 0x20 }
  - { offsetInCU: 0x292BE, offset: 0x292BE, size: 0x8, addend: 0x0, symName: __ZNSt3__122__compressed_pair_elemINS_9allocatorIdEELi1ELb1EE5__getB8ue170006Ev, symObjAddr: 0x100A0, symBinAddr: 0x1000113F0, symSize: 0x10 }
  - { offsetInCU: 0x292E4, offset: 0x292E4, size: 0x8, addend: 0x0, symName: __ZNKSt3__16vectorIdNS_9allocatorIdEEE9__end_capB8ue170006Ev, symObjAddr: 0x100B0, symBinAddr: 0x100011400, symSize: 0x20 }
  - { offsetInCU: 0x2930A, offset: 0x2930A, size: 0x8, addend: 0x0, symName: __ZNKSt3__117__compressed_pairIPdNS_9allocatorIdEEE5firstB8ue170006Ev, symObjAddr: 0x100D0, symBinAddr: 0x100011420, symSize: 0x20 }
  - { offsetInCU: 0x29330, offset: 0x29330, size: 0x8, addend: 0x0, symName: __ZNKSt3__122__compressed_pair_elemIPdLi0ELb0EE5__getB8ue170006Ev, symObjAddr: 0x100F0, symBinAddr: 0x100011440, symSize: 0x10 }
  - { offsetInCU: 0x29356, offset: 0x29356, size: 0x8, addend: 0x0, symName: __ZNSt3__16vectorIdNS_9allocatorIdEEE9__end_capB8ue170006Ev, symObjAddr: 0x10100, symBinAddr: 0x100011450, symSize: 0x20 }
  - { offsetInCU: 0x29381, offset: 0x29381, size: 0x8, addend: 0x0, symName: __ZNSt3__16vectorIdNS_9allocatorIdEEE22__construct_one_at_endB8ue170006IJdEEEvDpOT_, symObjAddr: 0x10120, symBinAddr: 0x100011470, symSize: 0xA0 }
  - { offsetInCU: 0x293D0, offset: 0x293D0, size: 0x8, addend: 0x0, symName: __ZNSt3__16vectorIdNS_9allocatorIdEEE21__push_back_slow_pathIdEEvOT_, symObjAddr: 0x101C0, symBinAddr: 0x100011510, symSize: 0xE0 }
  - { offsetInCU: 0x2942E, offset: 0x2942E, size: 0x8, addend: 0x0, symName: __ZNSt3__117__compressed_pairIPdNS_9allocatorIdEEE5firstB8ue170006Ev, symObjAddr: 0x102A0, symBinAddr: 0x1000115F0, symSize: 0x20 }
  - { offsetInCU: 0x29454, offset: 0x29454, size: 0x8, addend: 0x0, symName: __ZNSt3__122__compressed_pair_elemIPdLi0ELb0EE5__getB8ue170006Ev, symObjAddr: 0x102C0, symBinAddr: 0x100011610, symSize: 0x10 }
  - { offsetInCU: 0x29493, offset: 0x29493, size: 0x8, addend: 0x0, symName: __ZNSt3__16vectorIdNS_9allocatorIdEEE21_ConstructTransactionC1B8ue170006ERS3_m, symObjAddr: 0x102D0, symBinAddr: 0x100011620, symSize: 0x30 }
  - { offsetInCU: 0x294DB, offset: 0x294DB, size: 0x8, addend: 0x0, symName: __ZNSt3__116allocator_traitsINS_9allocatorIdEEE9constructB8ue170006IdJdEvEEvRS2_PT_DpOT0_, symObjAddr: 0x10300, symBinAddr: 0x100011650, symSize: 0x30 }
  - { offsetInCU: 0x29532, offset: 0x29532, size: 0x8, addend: 0x0, symName: __ZNSt3__16vectorIdNS_9allocatorIdEEE21_ConstructTransactionD1B8ue170006Ev, symObjAddr: 0x10330, symBinAddr: 0x100011680, symSize: 0x20 }
  - { offsetInCU: 0x2955C, offset: 0x2955C, size: 0x8, addend: 0x0, symName: __ZNSt3__16vectorIdNS_9allocatorIdEEE21_ConstructTransactionC2B8ue170006ERS3_m, symObjAddr: 0x10350, symBinAddr: 0x1000116A0, symSize: 0x40 }
  - { offsetInCU: 0x295A4, offset: 0x295A4, size: 0x8, addend: 0x0, symName: __ZNSt3__19allocatorIdE9constructB8ue170006IdJdEEEvPT_DpOT0_, symObjAddr: 0x10390, symBinAddr: 0x1000116E0, symSize: 0x30 }
  - { offsetInCU: 0x295FA, offset: 0x295FA, size: 0x8, addend: 0x0, symName: __ZNSt3__16vectorIdNS_9allocatorIdEEE21_ConstructTransactionD2B8ue170006Ev, symObjAddr: 0x103C0, symBinAddr: 0x100011710, symSize: 0x20 }
  - { offsetInCU: 0x29624, offset: 0x29624, size: 0x8, addend: 0x0, symName: __ZNKSt3__16vectorIdNS_9allocatorIdEEE11__recommendB8ue170006Em, symObjAddr: 0x103E0, symBinAddr: 0x100011730, symSize: 0xA0 }
  - { offsetInCU: 0x29679, offset: 0x29679, size: 0x8, addend: 0x0, symName: __ZNSt3__114__split_bufferIdRNS_9allocatorIdEEEC1EmmS3_, symObjAddr: 0x10480, symBinAddr: 0x1000117D0, symSize: 0x40 }
  - { offsetInCU: 0x296CF, offset: 0x296CF, size: 0x8, addend: 0x0, symName: __ZNSt3__114__split_bufferIdRNS_9allocatorIdEEED1Ev, symObjAddr: 0x105E0, symBinAddr: 0x100011930, symSize: 0x20 }
  - { offsetInCU: 0x296FB, offset: 0x296FB, size: 0x8, addend: 0x0, symName: __ZNKSt3__16vectorIdNS_9allocatorIdEEE8max_sizeEv, symObjAddr: 0x10600, symBinAddr: 0x100011950, symSize: 0x70 }
  - { offsetInCU: 0x29723, offset: 0x29723, size: 0x8, addend: 0x0, symName: __ZNKSt3__16vectorIdNS_9allocatorIdEEE20__throw_length_errorB8ue170006Ev, symObjAddr: 0x10670, symBinAddr: 0x1000119C0, symSize: 0x20 }
  - { offsetInCU: 0x29753, offset: 0x29753, size: 0x8, addend: 0x0, symName: __ZNSt3__116allocator_traitsINS_9allocatorIdEEE8max_sizeB8ue170006IS2_vEEmRKS2_, symObjAddr: 0x10690, symBinAddr: 0x1000119E0, symSize: 0x20 }
  - { offsetInCU: 0x29781, offset: 0x29781, size: 0x8, addend: 0x0, symName: __ZNKSt3__16vectorIdNS_9allocatorIdEEE7__allocB8ue170006Ev, symObjAddr: 0x106B0, symBinAddr: 0x100011A00, symSize: 0x20 }
  - { offsetInCU: 0x297A7, offset: 0x297A7, size: 0x8, addend: 0x0, symName: __ZNKSt3__19allocatorIdE8max_sizeB8ue170006Ev, symObjAddr: 0x106D0, symBinAddr: 0x100011A20, symSize: 0x20 }
  - { offsetInCU: 0x297CD, offset: 0x297CD, size: 0x8, addend: 0x0, symName: __ZNKSt3__117__compressed_pairIPdNS_9allocatorIdEEE6secondB8ue170006Ev, symObjAddr: 0x106F0, symBinAddr: 0x100011A40, symSize: 0x20 }
  - { offsetInCU: 0x297F3, offset: 0x297F3, size: 0x8, addend: 0x0, symName: __ZNKSt3__122__compressed_pair_elemINS_9allocatorIdEELi1ELb1EE5__getB8ue170006Ev, symObjAddr: 0x10710, symBinAddr: 0x100011A60, symSize: 0x10 }
  - { offsetInCU: 0x29819, offset: 0x29819, size: 0x8, addend: 0x0, symName: __ZNSt3__114__split_bufferIdRNS_9allocatorIdEEEC2EmmS3_, symObjAddr: 0x10720, symBinAddr: 0x100011A70, symSize: 0xD0 }
  - { offsetInCU: 0x2988C, offset: 0x2988C, size: 0x8, addend: 0x0, symName: __ZNSt3__117__compressed_pairIPdRNS_9allocatorIdEEEC1B8ue170006IDnS4_EEOT_OT0_, symObjAddr: 0x107F0, symBinAddr: 0x100011B40, symSize: 0x30 }
  - { offsetInCU: 0x298E4, offset: 0x298E4, size: 0x8, addend: 0x0, symName: __ZNSt3__114__split_bufferIdRNS_9allocatorIdEEE7__allocB8ue170006Ev, symObjAddr: 0x10860, symBinAddr: 0x100011BB0, symSize: 0x20 }
  - { offsetInCU: 0x2990A, offset: 0x2990A, size: 0x8, addend: 0x0, symName: __ZNSt3__114__split_bufferIdRNS_9allocatorIdEEE9__end_capB8ue170006Ev, symObjAddr: 0x10880, symBinAddr: 0x100011BD0, symSize: 0x20 }
  - { offsetInCU: 0x29930, offset: 0x29930, size: 0x8, addend: 0x0, symName: __ZNSt3__117__compressed_pairIPdRNS_9allocatorIdEEEC2B8ue170006IDnS4_EEOT_OT0_, symObjAddr: 0x108A0, symBinAddr: 0x100011BF0, symSize: 0x40 }
  - { offsetInCU: 0x29988, offset: 0x29988, size: 0x8, addend: 0x0, symName: __ZNSt3__122__compressed_pair_elemIRNS_9allocatorIdEELi1ELb0EEC2B8ue170006IS3_vEEOT_, symObjAddr: 0x108E0, symBinAddr: 0x100011C30, symSize: 0x20 }
  - { offsetInCU: 0x299CA, offset: 0x299CA, size: 0x8, addend: 0x0, symName: __ZNSt3__19allocatorIdE8allocateB8ue170006Em, symObjAddr: 0x10900, symBinAddr: 0x100011C50, symSize: 0x80 }
  - { offsetInCU: 0x299FE, offset: 0x299FE, size: 0x8, addend: 0x0, symName: __ZNSt3__117__compressed_pairIPdRNS_9allocatorIdEEE6secondB8ue170006Ev, symObjAddr: 0x10980, symBinAddr: 0x100011CD0, symSize: 0x20 }
  - { offsetInCU: 0x29A24, offset: 0x29A24, size: 0x8, addend: 0x0, symName: __ZNSt3__122__compressed_pair_elemIRNS_9allocatorIdEELi1ELb0EE5__getB8ue170006Ev, symObjAddr: 0x109A0, symBinAddr: 0x100011CF0, symSize: 0x20 }
  - { offsetInCU: 0x29A4A, offset: 0x29A4A, size: 0x8, addend: 0x0, symName: __ZNSt3__117__compressed_pairIPdRNS_9allocatorIdEEE5firstB8ue170006Ev, symObjAddr: 0x109C0, symBinAddr: 0x100011D10, symSize: 0x20 }
  - { offsetInCU: 0x29A70, offset: 0x29A70, size: 0x8, addend: 0x0, symName: __ZNSt3__116reverse_iteratorIPdEC1B8ue170006ES1_, symObjAddr: 0x10B00, symBinAddr: 0x100011E50, symSize: 0x30 }
  - { offsetInCU: 0x29AA8, offset: 0x29AA8, size: 0x8, addend: 0x0, symName: __ZNKSt3__116reverse_iteratorIPdE4baseB8ue170006Ev, symObjAddr: 0x10B30, symBinAddr: 0x100011E80, symSize: 0x20 }
  - { offsetInCU: 0x29ACE, offset: 0x29ACE, size: 0x8, addend: 0x0, symName: __ZNKSt3__16vectorIdNS_9allocatorIdEEE14__annotate_newB8ue170006Em, symObjAddr: 0x10B90, symBinAddr: 0x100011EE0, symSize: 0xB0 }
  - { offsetInCU: 0x29B03, offset: 0x29B03, size: 0x8, addend: 0x0, symName: __ZNKSt3__116reverse_iteratorIPdEdeB8ue170006Ev, symObjAddr: 0x10CD0, symBinAddr: 0x100012020, symSize: 0x30 }
  - { offsetInCU: 0x29B37, offset: 0x29B37, size: 0x8, addend: 0x0, symName: __ZNSt3__116reverse_iteratorIPdEppB8ue170006Ev, symObjAddr: 0x10D00, symBinAddr: 0x100012050, symSize: 0x20 }
  - { offsetInCU: 0x29B62, offset: 0x29B62, size: 0x8, addend: 0x0, symName: __ZNSt3__119__to_address_helperINS_16reverse_iteratorIPdEEvE6__callB8ue170006ERKS3_, symObjAddr: 0x10DA0, symBinAddr: 0x1000120F0, symSize: 0x50 }
  - { offsetInCU: 0x29B85, offset: 0x29B85, size: 0x8, addend: 0x0, symName: __ZNKSt3__116reverse_iteratorIPdEptB8ue170006Ev, symObjAddr: 0x10DF0, symBinAddr: 0x100012140, symSize: 0x20 }
  - { offsetInCU: 0x29BC4, offset: 0x29BC4, size: 0x8, addend: 0x0, symName: __ZNKSt3__111__move_loopINS_17_ClassicAlgPolicyEEclB8ue170006INS_16reverse_iteratorIPdEES6_S6_EENS_4pairIT_T1_EES8_T0_S9_, symObjAddr: 0x111D0, symBinAddr: 0x100012520, symSize: 0xA0 }
  - { offsetInCU: 0x29C2F, offset: 0x29C2F, size: 0x8, addend: 0x0, symName: __ZNSt3__18_IterOpsINS_17_ClassicAlgPolicyEE11__iter_moveB8ue170006IRNS_16reverse_iteratorIPdEEEENS_9enable_ifIXsr12is_referenceIDTdeclsr3stdE7declvalIRT_EEEEE5valueEDTclsr3stdE4movedeclsr3stdE7declvalISA_EEEEE4typeEOS9_, symObjAddr: 0x113C0, symBinAddr: 0x100012710, symSize: 0x20 }
  - { offsetInCU: 0x29C5B, offset: 0x29C5B, size: 0x8, addend: 0x0, symName: __ZNSt3__18_IterOpsINS_17_ClassicAlgPolicyEE25__validate_iter_referenceB8ue170006IRNS_16reverse_iteratorIPdEEEEvv, symObjAddr: 0x113E0, symBinAddr: 0x100012730, symSize: 0x10 }
  - { offsetInCU: 0x29C79, offset: 0x29C79, size: 0x8, addend: 0x0, symName: __ZNSt3__118__unwrap_iter_implINS_16reverse_iteratorIPdEELb0EE8__unwrapB8ue170006ES3_, symObjAddr: 0x113F0, symBinAddr: 0x100012740, symSize: 0x20 }
  - { offsetInCU: 0x29C9C, offset: 0x29C9C, size: 0x8, addend: 0x0, symName: __ZNSt3__14pairINS_16reverse_iteratorIPdEES3_EC1B8ue170006ERKS3_S6_, symObjAddr: 0x11410, symBinAddr: 0x100012760, symSize: 0x30 }
  - { offsetInCU: 0x29CE2, offset: 0x29CE2, size: 0x8, addend: 0x0, symName: __ZNSt3__14pairINS_16reverse_iteratorIPdEES3_EC2B8ue170006ERKS3_S6_, symObjAddr: 0x11440, symBinAddr: 0x100012790, symSize: 0x40 }
  - { offsetInCU: 0x29D28, offset: 0x29D28, size: 0x8, addend: 0x0, symName: __ZNSt3__118__unwrap_iter_implINS_16reverse_iteratorIPdEELb0EE8__rewrapB8ue170006ES3_S3_, symObjAddr: 0x11480, symBinAddr: 0x1000127D0, symSize: 0x30 }
  - { offsetInCU: 0x29D55, offset: 0x29D55, size: 0x8, addend: 0x0, symName: __ZNSt3__116reverse_iteratorIPdEC2B8ue170006ES1_, symObjAddr: 0x114B0, symBinAddr: 0x100012800, symSize: 0x30 }
  - { offsetInCU: 0x29D8D, offset: 0x29D8D, size: 0x8, addend: 0x0, symName: __ZNSt3__114__split_bufferIdRNS_9allocatorIdEEED2Ev, symObjAddr: 0x114E0, symBinAddr: 0x100012830, symSize: 0x60 }
  - { offsetInCU: 0x29DB9, offset: 0x29DB9, size: 0x8, addend: 0x0, symName: __ZNSt3__114__split_bufferIdRNS_9allocatorIdEEE5clearB8ue170006Ev, symObjAddr: 0x11540, symBinAddr: 0x100012890, symSize: 0x20 }
  - { offsetInCU: 0x29DDF, offset: 0x29DDF, size: 0x8, addend: 0x0, symName: __ZNKSt3__114__split_bufferIdRNS_9allocatorIdEEE8capacityB8ue170006Ev, symObjAddr: 0x11560, symBinAddr: 0x1000128B0, symSize: 0x30 }
  - { offsetInCU: 0x29E05, offset: 0x29E05, size: 0x8, addend: 0x0, symName: __ZNSt3__114__split_bufferIdRNS_9allocatorIdEEE17__destruct_at_endB8ue170006EPd, symObjAddr: 0x11590, symBinAddr: 0x1000128E0, symSize: 0x30 }
  - { offsetInCU: 0x29E39, offset: 0x29E39, size: 0x8, addend: 0x0, symName: __ZNSt3__114__split_bufferIdRNS_9allocatorIdEEE17__destruct_at_endB8ue170006EPdNS_17integral_constantIbLb0EEE, symObjAddr: 0x115C0, symBinAddr: 0x100012910, symSize: 0x80 }
  - { offsetInCU: 0x29E79, offset: 0x29E79, size: 0x8, addend: 0x0, symName: __ZNKSt3__114__split_bufferIdRNS_9allocatorIdEEE9__end_capB8ue170006Ev, symObjAddr: 0x11640, symBinAddr: 0x100012990, symSize: 0x20 }
  - { offsetInCU: 0x29E9F, offset: 0x29E9F, size: 0x8, addend: 0x0, symName: __ZNKSt3__117__compressed_pairIPdRNS_9allocatorIdEEE5firstB8ue170006Ev, symObjAddr: 0x11660, symBinAddr: 0x1000129B0, symSize: 0x20 }
  - { offsetInCU: 0x29EC5, offset: 0x29EC5, size: 0x8, addend: 0x0, symName: __ZNSt3__16vectorINS0_I4WurdNS_9allocatorIS1_EEEENS2_IS4_EEE11__make_iterB8ue170006EPS4_, symObjAddr: 0x11680, symBinAddr: 0x1000129D0, symSize: 0x30 }
  - { offsetInCU: 0x29EFA, offset: 0x29EFA, size: 0x8, addend: 0x0, symName: __ZNSt3__111__wrap_iterIPNS_6vectorI4WurdNS_9allocatorIS2_EEEEEC1B8ue170006ES6_, symObjAddr: 0x116B0, symBinAddr: 0x100012A00, symSize: 0x30 }
  - { offsetInCU: 0x29F32, offset: 0x29F32, size: 0x8, addend: 0x0, symName: __ZNSt3__111__wrap_iterIPNS_6vectorI4WurdNS_9allocatorIS2_EEEEEC2B8ue170006ES6_, symObjAddr: 0x116E0, symBinAddr: 0x100012A30, symSize: 0x20 }
  - { offsetInCU: 0x29F6A, offset: 0x29F6A, size: 0x8, addend: 0x0, symName: __ZNKSt3__111__wrap_iterIPNS_6vectorI4WurdNS_9allocatorIS2_EEEEE4baseB8ue170006Ev, symObjAddr: 0x11740, symBinAddr: 0x100012A90, symSize: 0x20 }
  - { offsetInCU: 0x29F90, offset: 0x29F90, size: 0x8, addend: 0x0, symName: __ZNSt3__16vectorI4WurdNS_9allocatorIS1_EEEC2B8ue170006Ev, symObjAddr: 0x11760, symBinAddr: 0x100012AB0, symSize: 0x40 }
  - { offsetInCU: 0x29FBA, offset: 0x29FBA, size: 0x8, addend: 0x0, symName: __ZNSt3__117__compressed_pairIP4WurdNS_9allocatorIS1_EEEC1B8ue170006IDnNS_18__default_init_tagEEEOT_OT0_, symObjAddr: 0x117A0, symBinAddr: 0x100012AF0, symSize: 0x30 }
  - { offsetInCU: 0x2A012, offset: 0x2A012, size: 0x8, addend: 0x0, symName: __ZNSt3__117__compressed_pairIP4WurdNS_9allocatorIS1_EEEC2B8ue170006IDnNS_18__default_init_tagEEEOT_OT0_, symObjAddr: 0x117D0, symBinAddr: 0x100012B20, symSize: 0x40 }
  - { offsetInCU: 0x2A06A, offset: 0x2A06A, size: 0x8, addend: 0x0, symName: __ZNSt3__122__compressed_pair_elemIP4WurdLi0ELb0EEC2B8ue170006IDnvEEOT_, symObjAddr: 0x11810, symBinAddr: 0x100012B60, symSize: 0x20 }
  - { offsetInCU: 0x2A0AC, offset: 0x2A0AC, size: 0x8, addend: 0x0, symName: __ZNSt3__122__compressed_pair_elemINS_9allocatorI4WurdEELi1ELb1EEC2B8ue170006ENS_18__default_init_tagE, symObjAddr: 0x11830, symBinAddr: 0x100012B80, symSize: 0x20 }
  - { offsetInCU: 0x2A0E0, offset: 0x2A0E0, size: 0x8, addend: 0x0, symName: __ZNSt3__19allocatorI4WurdEC2B8ue170006Ev, symObjAddr: 0x11850, symBinAddr: 0x100012BA0, symSize: 0x20 }
  - { offsetInCU: 0x2A10A, offset: 0x2A10A, size: 0x8, addend: 0x0, symName: __ZNSt3__116__non_trivial_ifILb1ENS_9allocatorI4WurdEEEC2B8ue170006Ev, symObjAddr: 0x11870, symBinAddr: 0x100012BC0, symSize: 0x10 }
  - { offsetInCU: 0x2A134, offset: 0x2A134, size: 0x8, addend: 0x0, symName: __ZNSt3__16vectorI4WurdNS_9allocatorIS1_EEED2B8ue170006Ev, symObjAddr: 0x11880, symBinAddr: 0x100012BD0, symSize: 0x30 }
  - { offsetInCU: 0x2A15E, offset: 0x2A15E, size: 0x8, addend: 0x0, symName: __ZNSt3__16vectorI4WurdNS_9allocatorIS1_EEE16__destroy_vectorC1B8ue170006ERS4_, symObjAddr: 0x118B0, symBinAddr: 0x100012C00, symSize: 0x30 }
  - { offsetInCU: 0x2A197, offset: 0x2A197, size: 0x8, addend: 0x0, symName: __ZNSt3__16vectorI4WurdNS_9allocatorIS1_EEE16__destroy_vectorclB8ue170006Ev, symObjAddr: 0x118E0, symBinAddr: 0x100012C30, symSize: 0x80 }
  - { offsetInCU: 0x2A1BD, offset: 0x2A1BD, size: 0x8, addend: 0x0, symName: __ZNSt3__16vectorI4WurdNS_9allocatorIS1_EEE16__destroy_vectorC2B8ue170006ERS4_, symObjAddr: 0x11960, symBinAddr: 0x100012CB0, symSize: 0x20 }
  - { offsetInCU: 0x2A1F6, offset: 0x2A1F6, size: 0x8, addend: 0x0, symName: __ZNSt3__16vectorI4WurdNS_9allocatorIS1_EEE7__clearB8ue170006Ev, symObjAddr: 0x11980, symBinAddr: 0x100012CD0, symSize: 0x20 }
  - { offsetInCU: 0x2A21C, offset: 0x2A21C, size: 0x8, addend: 0x0, symName: __ZNKSt3__16vectorI4WurdNS_9allocatorIS1_EEE17__annotate_deleteB8ue170006Ev, symObjAddr: 0x119A0, symBinAddr: 0x100012CF0, symSize: 0xB0 }
  - { offsetInCU: 0x2A242, offset: 0x2A242, size: 0x8, addend: 0x0, symName: __ZNSt3__116allocator_traitsINS_9allocatorI4WurdEEE10deallocateB8ue170006ERS3_PS2_m, symObjAddr: 0x11A50, symBinAddr: 0x100012DA0, symSize: 0x30 }
  - { offsetInCU: 0x2A284, offset: 0x2A284, size: 0x8, addend: 0x0, symName: __ZNSt3__16vectorI4WurdNS_9allocatorIS1_EEE7__allocB8ue170006Ev, symObjAddr: 0x11A80, symBinAddr: 0x100012DD0, symSize: 0x20 }
  - { offsetInCU: 0x2A2AA, offset: 0x2A2AA, size: 0x8, addend: 0x0, symName: __ZNKSt3__16vectorI4WurdNS_9allocatorIS1_EEE8capacityB8ue170006Ev, symObjAddr: 0x11AA0, symBinAddr: 0x100012DF0, symSize: 0x30 }
  - { offsetInCU: 0x2A2D0, offset: 0x2A2D0, size: 0x8, addend: 0x0, symName: __ZNSt3__16vectorI4WurdNS_9allocatorIS1_EEE22__base_destruct_at_endB8ue170006EPS1_, symObjAddr: 0x11AD0, symBinAddr: 0x100012E20, symSize: 0x90 }
  - { offsetInCU: 0x2A314, offset: 0x2A314, size: 0x8, addend: 0x0, symName: __ZNSt3__116allocator_traitsINS_9allocatorI4WurdEEE7destroyB8ue170006IS2_vEEvRS3_PT_, symObjAddr: 0x11B60, symBinAddr: 0x100012EB0, symSize: 0x30 }
  - { offsetInCU: 0x2A351, offset: 0x2A351, size: 0x8, addend: 0x0, symName: __ZNSt3__19allocatorI4WurdE7destroyB8ue170006EPS1_, symObjAddr: 0x11BA0, symBinAddr: 0x100012EF0, symSize: 0x20 }
  - { offsetInCU: 0x2A385, offset: 0x2A385, size: 0x8, addend: 0x0, symName: __ZNKSt3__16vectorI4WurdNS_9allocatorIS1_EEE31__annotate_contiguous_containerB8ue170006EPKvS6_S6_S6_, symObjAddr: 0x11BC0, symBinAddr: 0x100012F10, symSize: 0x20 }
  - { offsetInCU: 0x2A3D7, offset: 0x2A3D7, size: 0x8, addend: 0x0, symName: __ZNKSt3__16vectorI4WurdNS_9allocatorIS1_EEE4dataB8ue170006Ev, symObjAddr: 0x11BE0, symBinAddr: 0x100012F30, symSize: 0x20 }
  - { offsetInCU: 0x2A3FD, offset: 0x2A3FD, size: 0x8, addend: 0x0, symName: __ZNSt3__19allocatorI4WurdE10deallocateB8ue170006EPS1_m, symObjAddr: 0x11C00, symBinAddr: 0x100012F50, symSize: 0x70 }
  - { offsetInCU: 0x2A43F, offset: 0x2A43F, size: 0x8, addend: 0x0, symName: __ZNSt3__117__compressed_pairIP4WurdNS_9allocatorIS1_EEE6secondB8ue170006Ev, symObjAddr: 0x11C70, symBinAddr: 0x100012FC0, symSize: 0x20 }
  - { offsetInCU: 0x2A465, offset: 0x2A465, size: 0x8, addend: 0x0, symName: __ZNSt3__122__compressed_pair_elemINS_9allocatorI4WurdEELi1ELb1EE5__getB8ue170006Ev, symObjAddr: 0x11C90, symBinAddr: 0x100012FE0, symSize: 0x10 }
  - { offsetInCU: 0x2A48B, offset: 0x2A48B, size: 0x8, addend: 0x0, symName: __ZNKSt3__16vectorI4WurdNS_9allocatorIS1_EEE9__end_capB8ue170006Ev, symObjAddr: 0x11CA0, symBinAddr: 0x100012FF0, symSize: 0x20 }
  - { offsetInCU: 0x2A4B1, offset: 0x2A4B1, size: 0x8, addend: 0x0, symName: __ZNKSt3__117__compressed_pairIP4WurdNS_9allocatorIS1_EEE5firstB8ue170006Ev, symObjAddr: 0x11CC0, symBinAddr: 0x100013010, symSize: 0x20 }
  - { offsetInCU: 0x2A4D7, offset: 0x2A4D7, size: 0x8, addend: 0x0, symName: __ZNKSt3__122__compressed_pair_elemIP4WurdLi0ELb0EE5__getB8ue170006Ev, symObjAddr: 0x11CE0, symBinAddr: 0x100013030, symSize: 0x10 }
  - { offsetInCU: 0x2A4FD, offset: 0x2A4FD, size: 0x8, addend: 0x0, symName: __ZNKSt3__16vectorI4WurdNS_9allocatorIS1_EEE11__make_iterB8ue170006EPKS1_, symObjAddr: 0x11CF0, symBinAddr: 0x100013040, symSize: 0x30 }
  - { offsetInCU: 0x2A532, offset: 0x2A532, size: 0x8, addend: 0x0, symName: __ZNSt3__111__wrap_iterIPK4WurdEC1B8ue170006ES3_, symObjAddr: 0x11D20, symBinAddr: 0x100013070, symSize: 0x30 }
  - { offsetInCU: 0x2A56A, offset: 0x2A56A, size: 0x8, addend: 0x0, symName: __ZNSt3__111__wrap_iterIPK4WurdEC2B8ue170006ES3_, symObjAddr: 0x11D50, symBinAddr: 0x1000130A0, symSize: 0x20 }
  - { offsetInCU: 0x2A5A2, offset: 0x2A5A2, size: 0x8, addend: 0x0, symName: __ZNKSt3__111__wrap_iterIPK4WurdE4baseB8ue170006Ev, symObjAddr: 0x11DB0, symBinAddr: 0x100013100, symSize: 0x20 }
  - { offsetInCU: 0x2A5C8, offset: 0x2A5C8, size: 0x8, addend: 0x0, symName: __ZNSt3__16vectorI4WurdNS_9allocatorIS1_EEE9__end_capB8ue170006Ev, symObjAddr: 0x11DD0, symBinAddr: 0x100013120, symSize: 0x20 }
  - { offsetInCU: 0x2A5EE, offset: 0x2A5EE, size: 0x8, addend: 0x0, symName: __ZNSt3__16vectorI4WurdNS_9allocatorIS1_EEE22__construct_one_at_endB8ue170006IJRKS1_EEEvDpOT_, symObjAddr: 0x11DF0, symBinAddr: 0x100013140, symSize: 0xA0 }
  - { offsetInCU: 0x2A63D, offset: 0x2A63D, size: 0x8, addend: 0x0, symName: __ZNSt3__16vectorI4WurdNS_9allocatorIS1_EEE21__push_back_slow_pathIRKS1_EEvOT_, symObjAddr: 0x11E90, symBinAddr: 0x1000131E0, symSize: 0xE0 }
  - { offsetInCU: 0x2A69B, offset: 0x2A69B, size: 0x8, addend: 0x0, symName: __ZNSt3__117__compressed_pairIP4WurdNS_9allocatorIS1_EEE5firstB8ue170006Ev, symObjAddr: 0x11F70, symBinAddr: 0x1000132C0, symSize: 0x20 }
  - { offsetInCU: 0x2A6C1, offset: 0x2A6C1, size: 0x8, addend: 0x0, symName: __ZNSt3__122__compressed_pair_elemIP4WurdLi0ELb0EE5__getB8ue170006Ev, symObjAddr: 0x11F90, symBinAddr: 0x1000132E0, symSize: 0x10 }
  - { offsetInCU: 0x2A700, offset: 0x2A700, size: 0x8, addend: 0x0, symName: __ZNSt3__16vectorI4WurdNS_9allocatorIS1_EEE21_ConstructTransactionC1B8ue170006ERS4_m, symObjAddr: 0x11FA0, symBinAddr: 0x1000132F0, symSize: 0x30 }
  - { offsetInCU: 0x2A748, offset: 0x2A748, size: 0x8, addend: 0x0, symName: __ZNSt3__116allocator_traitsINS_9allocatorI4WurdEEE9constructB8ue170006IS2_JRKS2_EvEEvRS3_PT_DpOT0_, symObjAddr: 0x11FD0, symBinAddr: 0x100013320, symSize: 0x30 }
  - { offsetInCU: 0x2A79F, offset: 0x2A79F, size: 0x8, addend: 0x0, symName: __ZNSt3__16vectorI4WurdNS_9allocatorIS1_EEE21_ConstructTransactionD1B8ue170006Ev, symObjAddr: 0x12000, symBinAddr: 0x100013350, symSize: 0x20 }
  - { offsetInCU: 0x2A7C9, offset: 0x2A7C9, size: 0x8, addend: 0x0, symName: __ZNSt3__16vectorI4WurdNS_9allocatorIS1_EEE21_ConstructTransactionC2B8ue170006ERS4_m, symObjAddr: 0x12020, symBinAddr: 0x100013370, symSize: 0x40 }
  - { offsetInCU: 0x2A811, offset: 0x2A811, size: 0x8, addend: 0x0, symName: __ZNSt3__19allocatorI4WurdE9constructB8ue170006IS1_JRKS1_EEEvPT_DpOT0_, symObjAddr: 0x12060, symBinAddr: 0x1000133B0, symSize: 0x30 }
  - { offsetInCU: 0x2A867, offset: 0x2A867, size: 0x8, addend: 0x0, symName: __ZNSt3__16vectorI4WurdNS_9allocatorIS1_EEE21_ConstructTransactionD2B8ue170006Ev, symObjAddr: 0x12090, symBinAddr: 0x1000133E0, symSize: 0x20 }
  - { offsetInCU: 0x2A891, offset: 0x2A891, size: 0x8, addend: 0x0, symName: __ZNKSt3__16vectorI4WurdNS_9allocatorIS1_EEE11__recommendB8ue170006Em, symObjAddr: 0x120B0, symBinAddr: 0x100013400, symSize: 0xA0 }
  - { offsetInCU: 0x2A8E6, offset: 0x2A8E6, size: 0x8, addend: 0x0, symName: __ZNSt3__114__split_bufferI4WurdRNS_9allocatorIS1_EEEC1EmmS4_, symObjAddr: 0x12150, symBinAddr: 0x1000134A0, symSize: 0x40 }
  - { offsetInCU: 0x2A93C, offset: 0x2A93C, size: 0x8, addend: 0x0, symName: __ZNSt3__114__split_bufferI4WurdRNS_9allocatorIS1_EEED1Ev, symObjAddr: 0x122B0, symBinAddr: 0x100013600, symSize: 0x20 }
  - { offsetInCU: 0x2A968, offset: 0x2A968, size: 0x8, addend: 0x0, symName: __ZNKSt3__16vectorI4WurdNS_9allocatorIS1_EEE8max_sizeEv, symObjAddr: 0x122D0, symBinAddr: 0x100013620, symSize: 0x70 }
  - { offsetInCU: 0x2A990, offset: 0x2A990, size: 0x8, addend: 0x0, symName: __ZNKSt3__16vectorI4WurdNS_9allocatorIS1_EEE20__throw_length_errorB8ue170006Ev, symObjAddr: 0x12340, symBinAddr: 0x100013690, symSize: 0x20 }
  - { offsetInCU: 0x2A9C0, offset: 0x2A9C0, size: 0x8, addend: 0x0, symName: __ZNSt3__116allocator_traitsINS_9allocatorI4WurdEEE8max_sizeB8ue170006IS3_vEEmRKS3_, symObjAddr: 0x12360, symBinAddr: 0x1000136B0, symSize: 0x20 }
  - { offsetInCU: 0x2A9EE, offset: 0x2A9EE, size: 0x8, addend: 0x0, symName: __ZNKSt3__16vectorI4WurdNS_9allocatorIS1_EEE7__allocB8ue170006Ev, symObjAddr: 0x12380, symBinAddr: 0x1000136D0, symSize: 0x20 }
  - { offsetInCU: 0x2AA14, offset: 0x2AA14, size: 0x8, addend: 0x0, symName: __ZNKSt3__19allocatorI4WurdE8max_sizeB8ue170006Ev, symObjAddr: 0x123A0, symBinAddr: 0x1000136F0, symSize: 0x20 }
  - { offsetInCU: 0x2AA3A, offset: 0x2AA3A, size: 0x8, addend: 0x0, symName: __ZNKSt3__117__compressed_pairIP4WurdNS_9allocatorIS1_EEE6secondB8ue170006Ev, symObjAddr: 0x123C0, symBinAddr: 0x100013710, symSize: 0x20 }
  - { offsetInCU: 0x2AA60, offset: 0x2AA60, size: 0x8, addend: 0x0, symName: __ZNKSt3__122__compressed_pair_elemINS_9allocatorI4WurdEELi1ELb1EE5__getB8ue170006Ev, symObjAddr: 0x123E0, symBinAddr: 0x100013730, symSize: 0x10 }
  - { offsetInCU: 0x2AA86, offset: 0x2AA86, size: 0x8, addend: 0x0, symName: __ZNSt3__114__split_bufferI4WurdRNS_9allocatorIS1_EEEC2EmmS4_, symObjAddr: 0x123F0, symBinAddr: 0x100013740, symSize: 0xD0 }
  - { offsetInCU: 0x2AAF9, offset: 0x2AAF9, size: 0x8, addend: 0x0, symName: __ZNSt3__117__compressed_pairIP4WurdRNS_9allocatorIS1_EEEC1B8ue170006IDnS5_EEOT_OT0_, symObjAddr: 0x124C0, symBinAddr: 0x100013810, symSize: 0x30 }
  - { offsetInCU: 0x2AB51, offset: 0x2AB51, size: 0x8, addend: 0x0, symName: __ZNSt3__114__split_bufferI4WurdRNS_9allocatorIS1_EEE7__allocB8ue170006Ev, symObjAddr: 0x12530, symBinAddr: 0x100013880, symSize: 0x20 }
  - { offsetInCU: 0x2AB77, offset: 0x2AB77, size: 0x8, addend: 0x0, symName: __ZNSt3__114__split_bufferI4WurdRNS_9allocatorIS1_EEE9__end_capB8ue170006Ev, symObjAddr: 0x12550, symBinAddr: 0x1000138A0, symSize: 0x20 }
  - { offsetInCU: 0x2AB9D, offset: 0x2AB9D, size: 0x8, addend: 0x0, symName: __ZNSt3__117__compressed_pairIP4WurdRNS_9allocatorIS1_EEEC2B8ue170006IDnS5_EEOT_OT0_, symObjAddr: 0x12570, symBinAddr: 0x1000138C0, symSize: 0x40 }
  - { offsetInCU: 0x2ABF5, offset: 0x2ABF5, size: 0x8, addend: 0x0, symName: __ZNSt3__122__compressed_pair_elemIRNS_9allocatorI4WurdEELi1ELb0EEC2B8ue170006IS4_vEEOT_, symObjAddr: 0x125B0, symBinAddr: 0x100013900, symSize: 0x20 }
  - { offsetInCU: 0x2AC37, offset: 0x2AC37, size: 0x8, addend: 0x0, symName: __ZNSt3__19allocatorI4WurdE8allocateB8ue170006Em, symObjAddr: 0x125D0, symBinAddr: 0x100013920, symSize: 0x80 }
  - { offsetInCU: 0x2AC6B, offset: 0x2AC6B, size: 0x8, addend: 0x0, symName: __ZNSt3__117__compressed_pairIP4WurdRNS_9allocatorIS1_EEE6secondB8ue170006Ev, symObjAddr: 0x12650, symBinAddr: 0x1000139A0, symSize: 0x20 }
  - { offsetInCU: 0x2AC91, offset: 0x2AC91, size: 0x8, addend: 0x0, symName: __ZNSt3__122__compressed_pair_elemIRNS_9allocatorI4WurdEELi1ELb0EE5__getB8ue170006Ev, symObjAddr: 0x12670, symBinAddr: 0x1000139C0, symSize: 0x20 }
  - { offsetInCU: 0x2ACB7, offset: 0x2ACB7, size: 0x8, addend: 0x0, symName: __ZNSt3__117__compressed_pairIP4WurdRNS_9allocatorIS1_EEE5firstB8ue170006Ev, symObjAddr: 0x12690, symBinAddr: 0x1000139E0, symSize: 0x20 }
  - { offsetInCU: 0x2ACDD, offset: 0x2ACDD, size: 0x8, addend: 0x0, symName: __ZNSt3__116reverse_iteratorIP4WurdEC1B8ue170006ES2_, symObjAddr: 0x12840, symBinAddr: 0x100013B90, symSize: 0x30 }
  - { offsetInCU: 0x2AD15, offset: 0x2AD15, size: 0x8, addend: 0x0, symName: __ZNKSt3__116reverse_iteratorIP4WurdE4baseB8ue170006Ev, symObjAddr: 0x12870, symBinAddr: 0x100013BC0, symSize: 0x20 }
  - { offsetInCU: 0x2AD3B, offset: 0x2AD3B, size: 0x8, addend: 0x0, symName: __ZNKSt3__16vectorI4WurdNS_9allocatorIS1_EEE14__annotate_newB8ue170006Em, symObjAddr: 0x128D0, symBinAddr: 0x100013C20, symSize: 0xB0 }
  - { offsetInCU: 0x2AD70, offset: 0x2AD70, size: 0x8, addend: 0x0, symName: __ZNSt3__129_AllocatorDestroyRangeReverseINS_9allocatorI4WurdEENS_16reverse_iteratorIPS2_EEEC1B8ue170006ERS3_RS6_S9_, symObjAddr: 0x129E0, symBinAddr: 0x100013D30, symSize: 0x40 }
  - { offsetInCU: 0x2ADC7, offset: 0x2ADC7, size: 0x8, addend: 0x0, symName: __ZNKSt3__116reverse_iteratorIP4WurdEdeB8ue170006Ev, symObjAddr: 0x12A80, symBinAddr: 0x100013DD0, symSize: 0x30 }
  - { offsetInCU: 0x2ADFB, offset: 0x2ADFB, size: 0x8, addend: 0x0, symName: __ZNSt3__116reverse_iteratorIP4WurdEppB8ue170006Ev, symObjAddr: 0x12AB0, symBinAddr: 0x100013E00, symSize: 0x20 }
  - { offsetInCU: 0x2AE21, offset: 0x2AE21, size: 0x8, addend: 0x0, symName: __ZNSt3__128__exception_guard_exceptionsINS_29_AllocatorDestroyRangeReverseINS_9allocatorI4WurdEENS_16reverse_iteratorIPS3_EEEEE10__completeB8ue170006Ev, symObjAddr: 0x12AD0, symBinAddr: 0x100013E20, symSize: 0x20 }
  - { offsetInCU: 0x2AE47, offset: 0x2AE47, size: 0x8, addend: 0x0, symName: __ZNSt3__128__exception_guard_exceptionsINS_29_AllocatorDestroyRangeReverseINS_9allocatorI4WurdEENS_16reverse_iteratorIPS3_EEEEED1B8ue170006Ev, symObjAddr: 0x12AF0, symBinAddr: 0x100013E40, symSize: 0x20 }
  - { offsetInCU: 0x2AE71, offset: 0x2AE71, size: 0x8, addend: 0x0, symName: __ZNSt3__128__exception_guard_exceptionsINS_29_AllocatorDestroyRangeReverseINS_9allocatorI4WurdEENS_16reverse_iteratorIPS3_EEEEEC1B8ue170006ES8_, symObjAddr: 0x12B10, symBinAddr: 0x100013E60, symSize: 0x40 }
  - { offsetInCU: 0x2AEA9, offset: 0x2AEA9, size: 0x8, addend: 0x0, symName: __ZNSt3__128__exception_guard_exceptionsINS_29_AllocatorDestroyRangeReverseINS_9allocatorI4WurdEENS_16reverse_iteratorIPS3_EEEEEC2B8ue170006ES8_, symObjAddr: 0x12B50, symBinAddr: 0x100013EA0, symSize: 0x30 }
  - { offsetInCU: 0x2AEE1, offset: 0x2AEE1, size: 0x8, addend: 0x0, symName: __ZNSt3__129_AllocatorDestroyRangeReverseINS_9allocatorI4WurdEENS_16reverse_iteratorIPS2_EEEC2B8ue170006ERS3_RS6_S9_, symObjAddr: 0x12B80, symBinAddr: 0x100013ED0, symSize: 0x40 }
  - { offsetInCU: 0x2AF3D, offset: 0x2AF3D, size: 0x8, addend: 0x0, symName: __ZNSt3__119__to_address_helperINS_16reverse_iteratorIP4WurdEEvE6__callB8ue170006ERKS4_, symObjAddr: 0x12BC0, symBinAddr: 0x100013F10, symSize: 0x50 }
  - { offsetInCU: 0x2AF60, offset: 0x2AF60, size: 0x8, addend: 0x0, symName: __ZNKSt3__116reverse_iteratorIP4WurdEptB8ue170006Ev, symObjAddr: 0x12C10, symBinAddr: 0x100013F60, symSize: 0x20 }
  - { offsetInCU: 0x2AF86, offset: 0x2AF86, size: 0x8, addend: 0x0, symName: __ZNSt3__128__exception_guard_exceptionsINS_29_AllocatorDestroyRangeReverseINS_9allocatorI4WurdEENS_16reverse_iteratorIPS3_EEEEED2B8ue170006Ev, symObjAddr: 0x12C30, symBinAddr: 0x100013F80, symSize: 0x30 }
  - { offsetInCU: 0x2AFB0, offset: 0x2AFB0, size: 0x8, addend: 0x0, symName: __ZNKSt3__129_AllocatorDestroyRangeReverseINS_9allocatorI4WurdEENS_16reverse_iteratorIPS2_EEEclB8ue170006Ev, symObjAddr: 0x12C60, symBinAddr: 0x100013FB0, symSize: 0xF0 }
  - { offsetInCU: 0x2AFD7, offset: 0x2AFD7, size: 0x8, addend: 0x0, symName: __ZNSt3__116reverse_iteratorINS0_IP4WurdEEEC1B8ue170006ES3_, symObjAddr: 0x12DC0, symBinAddr: 0x100014110, symSize: 0x30 }
  - { offsetInCU: 0x2B00F, offset: 0x2B00F, size: 0x8, addend: 0x0, symName: __ZNSt3__116reverse_iteratorINS0_IP4WurdEEEppB8ue170006Ev, symObjAddr: 0x12E60, symBinAddr: 0x1000141B0, symSize: 0x30 }
  - { offsetInCU: 0x2B035, offset: 0x2B035, size: 0x8, addend: 0x0, symName: __ZNKSt3__116reverse_iteratorINS0_IP4WurdEEE4baseB8ue170006Ev, symObjAddr: 0x12E90, symBinAddr: 0x1000141E0, symSize: 0x20 }
  - { offsetInCU: 0x2B060, offset: 0x2B060, size: 0x8, addend: 0x0, symName: __ZNSt3__119__to_address_helperINS_16reverse_iteratorINS1_IP4WurdEEEEvE6__callB8ue170006ERKS5_, symObjAddr: 0x12EB0, symBinAddr: 0x100014200, symSize: 0x50 }
  - { offsetInCU: 0x2B083, offset: 0x2B083, size: 0x8, addend: 0x0, symName: __ZNKSt3__116reverse_iteratorINS0_IP4WurdEEEptB8ue170006Ev, symObjAddr: 0x12F00, symBinAddr: 0x100014250, symSize: 0x20 }
  - { offsetInCU: 0x2B0A9, offset: 0x2B0A9, size: 0x8, addend: 0x0, symName: __ZNKSt3__116reverse_iteratorINS0_IP4WurdEEEdeB8ue170006Ev, symObjAddr: 0x12F20, symBinAddr: 0x100014270, symSize: 0x40 }
  - { offsetInCU: 0x2B0DD, offset: 0x2B0DD, size: 0x8, addend: 0x0, symName: __ZNSt3__116reverse_iteratorIP4WurdEmmB8ue170006Ev, symObjAddr: 0x12F60, symBinAddr: 0x1000142B0, symSize: 0x20 }
  - { offsetInCU: 0x2B103, offset: 0x2B103, size: 0x8, addend: 0x0, symName: __ZNSt3__116reverse_iteratorINS0_IP4WurdEEEC2B8ue170006ES3_, symObjAddr: 0x12F80, symBinAddr: 0x1000142D0, symSize: 0x40 }
  - { offsetInCU: 0x2B13B, offset: 0x2B13B, size: 0x8, addend: 0x0, symName: __ZNSt3__116reverse_iteratorIP4WurdEC2B8ue170006ES2_, symObjAddr: 0x12FC0, symBinAddr: 0x100014310, symSize: 0x30 }
  - { offsetInCU: 0x2B173, offset: 0x2B173, size: 0x8, addend: 0x0, symName: __ZNSt3__114__split_bufferI4WurdRNS_9allocatorIS1_EEED2Ev, symObjAddr: 0x12FF0, symBinAddr: 0x100014340, symSize: 0x60 }
  - { offsetInCU: 0x2B19F, offset: 0x2B19F, size: 0x8, addend: 0x0, symName: __ZNSt3__114__split_bufferI4WurdRNS_9allocatorIS1_EEE5clearB8ue170006Ev, symObjAddr: 0x13050, symBinAddr: 0x1000143A0, symSize: 0x20 }
  - { offsetInCU: 0x2B1C5, offset: 0x2B1C5, size: 0x8, addend: 0x0, symName: __ZNKSt3__114__split_bufferI4WurdRNS_9allocatorIS1_EEE8capacityB8ue170006Ev, symObjAddr: 0x13070, symBinAddr: 0x1000143C0, symSize: 0x30 }
  - { offsetInCU: 0x2B1EB, offset: 0x2B1EB, size: 0x8, addend: 0x0, symName: __ZNSt3__114__split_bufferI4WurdRNS_9allocatorIS1_EEE17__destruct_at_endB8ue170006EPS1_, symObjAddr: 0x130A0, symBinAddr: 0x1000143F0, symSize: 0x30 }
  - { offsetInCU: 0x2B21F, offset: 0x2B21F, size: 0x8, addend: 0x0, symName: __ZNSt3__114__split_bufferI4WurdRNS_9allocatorIS1_EEE17__destruct_at_endB8ue170006EPS1_NS_17integral_constantIbLb0EEE, symObjAddr: 0x130D0, symBinAddr: 0x100014420, symSize: 0x80 }
  - { offsetInCU: 0x2B25F, offset: 0x2B25F, size: 0x8, addend: 0x0, symName: __ZNKSt3__114__split_bufferI4WurdRNS_9allocatorIS1_EEE9__end_capB8ue170006Ev, symObjAddr: 0x13150, symBinAddr: 0x1000144A0, symSize: 0x20 }
  - { offsetInCU: 0x2B285, offset: 0x2B285, size: 0x8, addend: 0x0, symName: __ZNKSt3__117__compressed_pairIP4WurdRNS_9allocatorIS1_EEE5firstB8ue170006Ev, symObjAddr: 0x13170, symBinAddr: 0x1000144C0, symSize: 0x20 }
  - { offsetInCU: 0x2B2AB, offset: 0x2B2AB, size: 0x8, addend: 0x0, symName: __ZNSt3__112basic_stringIcNS_11char_traitsIcEENS_9allocatorIcEEE13__get_pointerB8ue170006Ev, symObjAddr: 0x13190, symBinAddr: 0x1000144E0, symSize: 0x50 }
  - { offsetInCU: 0x2B2D1, offset: 0x2B2D1, size: 0x8, addend: 0x0, symName: __ZNKSt3__112__hash_tableIcNS_4hashIcEENS_8equal_toIcEENS_9allocatorIcEEE4sizeB8ue170006Ev, symObjAddr: 0x131E0, symBinAddr: 0x100014530, symSize: 0x30 }
  - { offsetInCU: 0x2B2F7, offset: 0x2B2F7, size: 0x8, addend: 0x0, symName: __ZNKSt3__117__compressed_pairImNS_4hashIcEEE5firstB8ue170006Ev, symObjAddr: 0x13210, symBinAddr: 0x100014560, symSize: 0x20 }
  - { offsetInCU: 0x2B31D, offset: 0x2B31D, size: 0x8, addend: 0x0, symName: __ZNKSt3__122__compressed_pair_elemImLi0ELb0EE5__getB8ue170006Ev, symObjAddr: 0x13230, symBinAddr: 0x100014580, symSize: 0x10 }
  - { offsetInCU: 0x2B343, offset: 0x2B343, size: 0x8, addend: 0x0, symName: __ZNSt3__112__hash_tableIcNS_4hashIcEENS_8equal_toIcEENS_9allocatorIcEEE15__insert_uniqueB8ue170006ERKc, symObjAddr: 0x13240, symBinAddr: 0x100014590, symSize: 0x50 }
  - { offsetInCU: 0x2B378, offset: 0x2B378, size: 0x8, addend: 0x0, symName: __ZNSt3__14pairINS_21__hash_const_iteratorIPNS_11__hash_nodeIcPvEEEEbEC1B8ue170006INS_15__hash_iteratorIS5_EEbEERKNS0_IT_T0_EE, symObjAddr: 0x13290, symBinAddr: 0x1000145E0, symSize: 0x30 }
  - { offsetInCU: 0x2B3C2, offset: 0x2B3C2, size: 0x8, addend: 0x0, symName: __ZNSt3__112__hash_tableIcNS_4hashIcEENS_8equal_toIcEENS_9allocatorIcEEE25__emplace_unique_key_argsIcJRKcEEENS_4pairINS_15__hash_iteratorIPNS_11__hash_nodeIcPvEEEEbEERKT_DpOT0_, symObjAddr: 0x132C0, symBinAddr: 0x100014610, symSize: 0x650 }
  - { offsetInCU: 0x2B4A0, offset: 0x2B4A0, size: 0x8, addend: 0x0, symName: __ZNSt3__122__hash_key_value_typesIcE9__get_keyB8ue170006ERKc, symObjAddr: 0x13910, symBinAddr: 0x100014C60, symSize: 0x10 }
  - { offsetInCU: 0x2B4C3, offset: 0x2B4C3, size: 0x8, addend: 0x0, symName: __ZNSt3__112__hash_tableIcNS_4hashIcEENS_8equal_toIcEENS_9allocatorIcEEE13hash_functionB8ue170006Ev, symObjAddr: 0x13920, symBinAddr: 0x100014C70, symSize: 0x20 }
  - { offsetInCU: 0x2B4E9, offset: 0x2B4E9, size: 0x8, addend: 0x0, symName: __ZNKSt3__14hashIcEclB8ue170006Ec, symObjAddr: 0x13940, symBinAddr: 0x100014C90, symSize: 0x20 }
  - { offsetInCU: 0x2B51E, offset: 0x2B51E, size: 0x8, addend: 0x0, symName: __ZNKSt3__112__hash_tableIcNS_4hashIcEENS_8equal_toIcEENS_9allocatorIcEEE12bucket_countB8ue170006Ev, symObjAddr: 0x13960, symBinAddr: 0x100014CB0, symSize: 0x30 }
  - { offsetInCU: 0x2B544, offset: 0x2B544, size: 0x8, addend: 0x0, symName: __ZNKSt3__110unique_ptrIA_PNS_16__hash_node_baseIPNS_11__hash_nodeIcPvEEEENS_25__bucket_list_deallocatorINS_9allocatorIS7_EEEEEixB8ue170006Em, symObjAddr: 0x13A10, symBinAddr: 0x100014D60, symSize: 0x30 }
  - { offsetInCU: 0x2B579, offset: 0x2B579, size: 0x8, addend: 0x0, symName: __ZNKSt3__116__hash_node_baseIPNS_11__hash_nodeIcPvEEE6__hashB8ue170006Ev, symObjAddr: 0x13A40, symBinAddr: 0x100014D90, symSize: 0x20 }
  - { offsetInCU: 0x2B59F, offset: 0x2B59F, size: 0x8, addend: 0x0, symName: __ZNSt3__112__hash_tableIcNS_4hashIcEENS_8equal_toIcEENS_9allocatorIcEEE6key_eqB8ue170006Ev, symObjAddr: 0x13A60, symBinAddr: 0x100014DB0, symSize: 0x20 }
  - { offsetInCU: 0x2B5C5, offset: 0x2B5C5, size: 0x8, addend: 0x0, symName: __ZNKSt3__18equal_toIcEclB8ue170006ERKcS3_, symObjAddr: 0x13A80, symBinAddr: 0x100014DD0, symSize: 0x30 }
  - { offsetInCU: 0x2B609, offset: 0x2B609, size: 0x8, addend: 0x0, symName: __ZNSt3__116__hash_node_baseIPNS_11__hash_nodeIcPvEEE8__upcastB8ue170006Ev, symObjAddr: 0x13AB0, symBinAddr: 0x100014E00, symSize: 0x20 }
  - { offsetInCU: 0x2B62F, offset: 0x2B62F, size: 0x8, addend: 0x0, symName: __ZNSt3__112__hash_tableIcNS_4hashIcEENS_8equal_toIcEENS_9allocatorIcEEE21__construct_node_hashIRKcJEEENS_10unique_ptrINS_11__hash_nodeIcPvEENS_22__hash_node_destructorINS5_ISE_EEEEEEmOT_DpOT0_, symObjAddr: 0x13AD0, symBinAddr: 0x100014E20, symSize: 0x140 }
  - { offsetInCU: 0x2B6A2, offset: 0x2B6A2, size: 0x8, addend: 0x0, symName: __ZNSt3__112__hash_tableIcNS_4hashIcEENS_8equal_toIcEENS_9allocatorIcEEE4sizeB8ue170006Ev, symObjAddr: 0x13C10, symBinAddr: 0x100014F60, symSize: 0x20 }
  - { offsetInCU: 0x2B6C8, offset: 0x2B6C8, size: 0x8, addend: 0x0, symName: __ZNSt3__112__hash_tableIcNS_4hashIcEENS_8equal_toIcEENS_9allocatorIcEEE15max_load_factorB8ue170006Ev, symObjAddr: 0x13C30, symBinAddr: 0x100014F80, symSize: 0x20 }
  - { offsetInCU: 0x2B6EE, offset: 0x2B6EE, size: 0x8, addend: 0x0, symName: __ZNSt3__112__hash_tableIcNS_4hashIcEENS_8equal_toIcEENS_9allocatorIcEEE15__rehash_uniqueB8ue170006Em, symObjAddr: 0x13C50, symBinAddr: 0x100014FA0, symSize: 0x30 }
  - { offsetInCU: 0x2B722, offset: 0x2B722, size: 0x8, addend: 0x0, symName: __Z4ceilB8ue170006f, symObjAddr: 0x13CC0, symBinAddr: 0x100015010, symSize: 0x20 }
  - { offsetInCU: 0x2B751, offset: 0x2B751, size: 0x8, addend: 0x0, symName: __ZNSt3__117__compressed_pairINS_16__hash_node_baseIPNS_11__hash_nodeIcPvEEEENS_9allocatorIS4_EEE5firstB8ue170006Ev, symObjAddr: 0x13CE0, symBinAddr: 0x100015030, symSize: 0x20 }
  - { offsetInCU: 0x2B777, offset: 0x2B777, size: 0x8, addend: 0x0, symName: __ZNSt3__116__hash_node_baseIPNS_11__hash_nodeIcPvEEE5__ptrB8ue170006Ev, symObjAddr: 0x13D00, symBinAddr: 0x100015050, symSize: 0x20 }
  - { offsetInCU: 0x2B79D, offset: 0x2B79D, size: 0x8, addend: 0x0, symName: __ZNKSt3__110unique_ptrINS_11__hash_nodeIcPvEENS_22__hash_node_destructorINS_9allocatorIS3_EEEEEptB8ue170006Ev, symObjAddr: 0x13D20, symBinAddr: 0x100015070, symSize: 0x20 }
  - { offsetInCU: 0x2B7C3, offset: 0x2B7C3, size: 0x8, addend: 0x0, symName: __ZNKSt3__110unique_ptrINS_11__hash_nodeIcPvEENS_22__hash_node_destructorINS_9allocatorIS3_EEEEE3getB8ue170006Ev, symObjAddr: 0x13D40, symBinAddr: 0x100015090, symSize: 0x20 }
  - { offsetInCU: 0x2B7E9, offset: 0x2B7E9, size: 0x8, addend: 0x0, symName: __ZNSt3__110unique_ptrINS_11__hash_nodeIcPvEENS_22__hash_node_destructorINS_9allocatorIS3_EEEEE7releaseB8ue170006Ev, symObjAddr: 0x13D60, symBinAddr: 0x1000150B0, symSize: 0x40 }
  - { offsetInCU: 0x2B81E, offset: 0x2B81E, size: 0x8, addend: 0x0, symName: __ZNSt3__110unique_ptrINS_11__hash_nodeIcPvEENS_22__hash_node_destructorINS_9allocatorIS3_EEEEED1B8ue170006Ev, symObjAddr: 0x13DA0, symBinAddr: 0x1000150F0, symSize: 0x20 }
  - { offsetInCU: 0x2B848, offset: 0x2B848, size: 0x8, addend: 0x0, symName: __ZNSt3__115__hash_iteratorIPNS_11__hash_nodeIcPvEEEC1B8ue170006EPNS_16__hash_node_baseIS4_EE, symObjAddr: 0x13DC0, symBinAddr: 0x100015110, symSize: 0x30 }
  - { offsetInCU: 0x2B881, offset: 0x2B881, size: 0x8, addend: 0x0, symName: __ZNSt3__14pairINS_15__hash_iteratorIPNS_11__hash_nodeIcPvEEEEbEC1B8ue170006ERKS6_RKb, symObjAddr: 0x13DF0, symBinAddr: 0x100015140, symSize: 0x30 }
  - { offsetInCU: 0x2B8C7, offset: 0x2B8C7, size: 0x8, addend: 0x0, symName: __ZNSt3__117__compressed_pairImNS_4hashIcEEE6secondB8ue170006Ev, symObjAddr: 0x13E20, symBinAddr: 0x100015170, symSize: 0x20 }
  - { offsetInCU: 0x2B8ED, offset: 0x2B8ED, size: 0x8, addend: 0x0, symName: __ZNSt3__122__compressed_pair_elemINS_4hashIcEELi1ELb1EE5__getB8ue170006Ev, symObjAddr: 0x13E40, symBinAddr: 0x100015190, symSize: 0x10 }
  - { offsetInCU: 0x2B913, offset: 0x2B913, size: 0x8, addend: 0x0, symName: __ZNKSt3__110unique_ptrIA_PNS_16__hash_node_baseIPNS_11__hash_nodeIcPvEEEENS_25__bucket_list_deallocatorINS_9allocatorIS7_EEEEE11get_deleterB8ue170006Ev, symObjAddr: 0x13E50, symBinAddr: 0x1000151A0, symSize: 0x20 }
  - { offsetInCU: 0x2B939, offset: 0x2B939, size: 0x8, addend: 0x0, symName: __ZNKSt3__125__bucket_list_deallocatorINS_9allocatorIPNS_16__hash_node_baseIPNS_11__hash_nodeIcPvEEEEEEE4sizeB8ue170006Ev, symObjAddr: 0x13E70, symBinAddr: 0x1000151C0, symSize: 0x20 }
  - { offsetInCU: 0x2B95F, offset: 0x2B95F, size: 0x8, addend: 0x0, symName: __ZNKSt3__117__compressed_pairIPPNS_16__hash_node_baseIPNS_11__hash_nodeIcPvEEEENS_25__bucket_list_deallocatorINS_9allocatorIS7_EEEEE6secondB8ue170006Ev, symObjAddr: 0x13E90, symBinAddr: 0x1000151E0, symSize: 0x20 }
  - { offsetInCU: 0x2B985, offset: 0x2B985, size: 0x8, addend: 0x0, symName: __ZNKSt3__122__compressed_pair_elemINS_25__bucket_list_deallocatorINS_9allocatorIPNS_16__hash_node_baseIPNS_11__hash_nodeIcPvEEEEEEEELi1ELb0EE5__getB8ue170006Ev, symObjAddr: 0x13EB0, symBinAddr: 0x100015200, symSize: 0x10 }
  - { offsetInCU: 0x2B9AB, offset: 0x2B9AB, size: 0x8, addend: 0x0, symName: __ZNKSt3__117__compressed_pairImNS_9allocatorIPNS_16__hash_node_baseIPNS_11__hash_nodeIcPvEEEEEEE5firstB8ue170006Ev, symObjAddr: 0x13EC0, symBinAddr: 0x100015210, symSize: 0x20 }
  - { offsetInCU: 0x2B9D1, offset: 0x2B9D1, size: 0x8, addend: 0x0, symName: __ZNKSt3__117__compressed_pairIPPNS_16__hash_node_baseIPNS_11__hash_nodeIcPvEEEENS_25__bucket_list_deallocatorINS_9allocatorIS7_EEEEE5firstB8ue170006Ev, symObjAddr: 0x13EE0, symBinAddr: 0x100015230, symSize: 0x20 }
  - { offsetInCU: 0x2B9F7, offset: 0x2B9F7, size: 0x8, addend: 0x0, symName: __ZNKSt3__122__compressed_pair_elemIPPNS_16__hash_node_baseIPNS_11__hash_nodeIcPvEEEELi0ELb0EE5__getB8ue170006Ev, symObjAddr: 0x13F00, symBinAddr: 0x100015250, symSize: 0x10 }
  - { offsetInCU: 0x2BA1D, offset: 0x2BA1D, size: 0x8, addend: 0x0, symName: __ZNSt3__117__compressed_pairIfNS_8equal_toIcEEE6secondB8ue170006Ev, symObjAddr: 0x13F10, symBinAddr: 0x100015260, symSize: 0x20 }
  - { offsetInCU: 0x2BA43, offset: 0x2BA43, size: 0x8, addend: 0x0, symName: __ZNSt3__122__compressed_pair_elemINS_8equal_toIcEELi1ELb1EE5__getB8ue170006Ev, symObjAddr: 0x13F30, symBinAddr: 0x100015280, symSize: 0x10 }
  - { offsetInCU: 0x2BA69, offset: 0x2BA69, size: 0x8, addend: 0x0, symName: __ZNSt3__114pointer_traitsIPNS_16__hash_node_baseIPNS_11__hash_nodeIcPvEEEEE10pointer_toB8ue170006ERS6_, symObjAddr: 0x13F40, symBinAddr: 0x100015290, symSize: 0x10 }
  - { offsetInCU: 0x2BA8C, offset: 0x2BA8C, size: 0x8, addend: 0x0, symName: __ZNSt3__112__hash_tableIcNS_4hashIcEENS_8equal_toIcEENS_9allocatorIcEEE12__node_allocB8ue170006Ev, symObjAddr: 0x13F50, symBinAddr: 0x1000152A0, symSize: 0x20 }
  - { offsetInCU: 0x2BAB2, offset: 0x2BAB2, size: 0x8, addend: 0x0, symName: __ZNSt3__116allocator_traitsINS_9allocatorINS_11__hash_nodeIcPvEEEEE8allocateB8ue170006ERS5_m, symObjAddr: 0x13F70, symBinAddr: 0x1000152C0, symSize: 0x30 }
  - { offsetInCU: 0x2BAE5, offset: 0x2BAE5, size: 0x8, addend: 0x0, symName: __ZNSt3__122__hash_node_destructorINS_9allocatorINS_11__hash_nodeIcPvEEEEEC1B8ue170006ERS5_b, symObjAddr: 0x13FA0, symBinAddr: 0x1000152F0, symSize: 0x40 }
  - { offsetInCU: 0x2BB32, offset: 0x2BB32, size: 0x8, addend: 0x0, symName: __ZNSt3__110unique_ptrINS_11__hash_nodeIcPvEENS_22__hash_node_destructorINS_9allocatorIS3_EEEEEC1B8ue170006ILb1EvEEPS3_NS_16__dependent_typeINS_27__unique_ptr_deleter_sfinaeIS7_EEXT_EE20__good_rval_ref_typeE, symObjAddr: 0x13FE0, symBinAddr: 0x100015330, symSize: 0x30 }
  - { offsetInCU: 0x2BB83, offset: 0x2BB83, size: 0x8, addend: 0x0, symName: __ZNSt3__116allocator_traitsINS_9allocatorINS_11__hash_nodeIcPvEEEEE9constructB8ue170006IcJRKcEvEEvRS5_PT_DpOT0_, symObjAddr: 0x14010, symBinAddr: 0x100015360, symSize: 0x30 }
  - { offsetInCU: 0x2BBDA, offset: 0x2BBDA, size: 0x8, addend: 0x0, symName: __ZNSt3__122__hash_key_value_typesIcE9__get_ptrB8ue170006ERc, symObjAddr: 0x14040, symBinAddr: 0x100015390, symSize: 0x10 }
  - { offsetInCU: 0x2BBFD, offset: 0x2BBFD, size: 0x8, addend: 0x0, symName: __ZNSt3__110unique_ptrINS_11__hash_nodeIcPvEENS_22__hash_node_destructorINS_9allocatorIS3_EEEEE11get_deleterB8ue170006Ev, symObjAddr: 0x14050, symBinAddr: 0x1000153A0, symSize: 0x20 }
  - { offsetInCU: 0x2BC23, offset: 0x2BC23, size: 0x8, addend: 0x0, symName: __ZNSt3__117__compressed_pairINS_16__hash_node_baseIPNS_11__hash_nodeIcPvEEEENS_9allocatorIS4_EEE6secondB8ue170006Ev, symObjAddr: 0x14070, symBinAddr: 0x1000153C0, symSize: 0x20 }
  - { offsetInCU: 0x2BC49, offset: 0x2BC49, size: 0x8, addend: 0x0, symName: __ZNSt3__122__compressed_pair_elemINS_9allocatorINS_11__hash_nodeIcPvEEEELi1ELb1EE5__getB8ue170006Ev, symObjAddr: 0x14090, symBinAddr: 0x1000153E0, symSize: 0x10 }
  - { offsetInCU: 0x2BC6F, offset: 0x2BC6F, size: 0x8, addend: 0x0, symName: __ZNSt3__19allocatorINS_11__hash_nodeIcPvEEE8allocateB8ue170006Em, symObjAddr: 0x140A0, symBinAddr: 0x1000153F0, symSize: 0x80 }
  - { offsetInCU: 0x2BCAD, offset: 0x2BCAD, size: 0x8, addend: 0x0, symName: __ZNSt3__116allocator_traitsINS_9allocatorINS_11__hash_nodeIcPvEEEEE8max_sizeB8ue170006IS5_vEEmRKS5_, symObjAddr: 0x14120, symBinAddr: 0x100015470, symSize: 0x20 }
  - { offsetInCU: 0x2BCDB, offset: 0x2BCDB, size: 0x8, addend: 0x0, symName: __ZNKSt3__19allocatorINS_11__hash_nodeIcPvEEE8max_sizeB8ue170006Ev, symObjAddr: 0x14140, symBinAddr: 0x100015490, symSize: 0x20 }
  - { offsetInCU: 0x2BD01, offset: 0x2BD01, size: 0x8, addend: 0x0, symName: __ZNSt3__122__hash_node_destructorINS_9allocatorINS_11__hash_nodeIcPvEEEEEC2B8ue170006ERS5_b, symObjAddr: 0x14160, symBinAddr: 0x1000154B0, symSize: 0x30 }
  - { offsetInCU: 0x2BD49, offset: 0x2BD49, size: 0x8, addend: 0x0, symName: __ZNSt3__110unique_ptrINS_11__hash_nodeIcPvEENS_22__hash_node_destructorINS_9allocatorIS3_EEEEEC2B8ue170006ILb1EvEEPS3_NS_16__dependent_typeINS_27__unique_ptr_deleter_sfinaeIS7_EEXT_EE20__good_rval_ref_typeE, symObjAddr: 0x14190, symBinAddr: 0x1000154E0, symSize: 0x50 }
  - { offsetInCU: 0x2BD9A, offset: 0x2BD9A, size: 0x8, addend: 0x0, symName: __ZNSt3__117__compressed_pairIPNS_11__hash_nodeIcPvEENS_22__hash_node_destructorINS_9allocatorIS3_EEEEEC1B8ue170006IRS4_S8_EEOT_OT0_, symObjAddr: 0x141E0, symBinAddr: 0x100015530, symSize: 0x30 }
  - { offsetInCU: 0x2BDF2, offset: 0x2BDF2, size: 0x8, addend: 0x0, symName: __ZNSt3__117__compressed_pairIPNS_11__hash_nodeIcPvEENS_22__hash_node_destructorINS_9allocatorIS3_EEEEEC2B8ue170006IRS4_S8_EEOT_OT0_, symObjAddr: 0x14210, symBinAddr: 0x100015560, symSize: 0x40 }
  - { offsetInCU: 0x2BE4A, offset: 0x2BE4A, size: 0x8, addend: 0x0, symName: __ZNSt3__122__compressed_pair_elemIPNS_11__hash_nodeIcPvEELi0ELb0EEC2B8ue170006IRS4_vEEOT_, symObjAddr: 0x14250, symBinAddr: 0x1000155A0, symSize: 0x20 }
  - { offsetInCU: 0x2BE8C, offset: 0x2BE8C, size: 0x8, addend: 0x0, symName: __ZNSt3__122__compressed_pair_elemINS_22__hash_node_destructorINS_9allocatorINS_11__hash_nodeIcPvEEEEEELi1ELb0EEC2B8ue170006IS7_vEEOT_, symObjAddr: 0x14270, symBinAddr: 0x1000155C0, symSize: 0x30 }
  - { offsetInCU: 0x2BECE, offset: 0x2BECE, size: 0x8, addend: 0x0, symName: __ZNSt3__19allocatorINS_11__hash_nodeIcPvEEE9constructB8ue170006IcJRKcEEEvPT_DpOT0_, symObjAddr: 0x142A0, symBinAddr: 0x1000155F0, symSize: 0x20 }
  - { offsetInCU: 0x2BF24, offset: 0x2BF24, size: 0x8, addend: 0x0, symName: __ZNSt3__117__compressed_pairIPNS_11__hash_nodeIcPvEENS_22__hash_node_destructorINS_9allocatorIS3_EEEEE6secondB8ue170006Ev, symObjAddr: 0x142C0, symBinAddr: 0x100015610, symSize: 0x20 }
  - { offsetInCU: 0x2BF4A, offset: 0x2BF4A, size: 0x8, addend: 0x0, symName: __ZNSt3__122__compressed_pair_elemINS_22__hash_node_destructorINS_9allocatorINS_11__hash_nodeIcPvEEEEEELi1ELb0EE5__getB8ue170006Ev, symObjAddr: 0x142E0, symBinAddr: 0x100015630, symSize: 0x10 }
  - { offsetInCU: 0x2BF70, offset: 0x2BF70, size: 0x8, addend: 0x0, symName: __ZNSt3__117__compressed_pairImNS_4hashIcEEE5firstB8ue170006Ev, symObjAddr: 0x142F0, symBinAddr: 0x100015640, symSize: 0x20 }
  - { offsetInCU: 0x2BF96, offset: 0x2BF96, size: 0x8, addend: 0x0, symName: __ZNSt3__117__compressed_pairIfNS_8equal_toIcEEE5firstB8ue170006Ev, symObjAddr: 0x14310, symBinAddr: 0x100015660, symSize: 0x20 }
  - { offsetInCU: 0x2BFBC, offset: 0x2BFBC, size: 0x8, addend: 0x0, symName: __ZNSt3__122__compressed_pair_elemIfLi0ELb0EE5__getB8ue170006Ev, symObjAddr: 0x14330, symBinAddr: 0x100015680, symSize: 0x10 }
  - { offsetInCU: 0x2BFE2, offset: 0x2BFE2, size: 0x8, addend: 0x0, symName: __ZNSt3__112__hash_tableIcNS_4hashIcEENS_8equal_toIcEENS_9allocatorIcEEE8__rehashILb1EEEvm, symObjAddr: 0x14340, symBinAddr: 0x100015690, symSize: 0x230 }
  - { offsetInCU: 0x2C032, offset: 0x2C032, size: 0x8, addend: 0x0, symName: __ZNSt3__112__hash_tableIcNS_4hashIcEENS_8equal_toIcEENS_9allocatorIcEEE11__do_rehashILb1EEEvm, symObjAddr: 0x14570, symBinAddr: 0x1000158C0, symSize: 0x250 }
  - { offsetInCU: 0x2C115, offset: 0x2C115, size: 0x8, addend: 0x0, symName: __ZNSt3__110unique_ptrIA_PNS_16__hash_node_baseIPNS_11__hash_nodeIcPvEEEENS_25__bucket_list_deallocatorINS_9allocatorIS7_EEEEE11get_deleterB8ue170006Ev, symObjAddr: 0x14820, symBinAddr: 0x100015B70, symSize: 0x20 }
  - { offsetInCU: 0x2C13B, offset: 0x2C13B, size: 0x8, addend: 0x0, symName: __ZNSt3__125__bucket_list_deallocatorINS_9allocatorIPNS_16__hash_node_baseIPNS_11__hash_nodeIcPvEEEEEEE7__allocB8ue170006Ev, symObjAddr: 0x14840, symBinAddr: 0x100015B90, symSize: 0x20 }
  - { offsetInCU: 0x2C161, offset: 0x2C161, size: 0x8, addend: 0x0, symName: __ZNSt3__110unique_ptrIA_PNS_16__hash_node_baseIPNS_11__hash_nodeIcPvEEEENS_25__bucket_list_deallocatorINS_9allocatorIS7_EEEEE5resetB8ue170006IPS7_EENS_9enable_ifIXsr28_CheckArrayPointerConversionIT_EE5valueEvE4typeESH_, symObjAddr: 0x14860, symBinAddr: 0x100015BB0, symSize: 0x70 }
  - { offsetInCU: 0x2C1AE, offset: 0x2C1AE, size: 0x8, addend: 0x0, symName: __ZNSt3__116allocator_traitsINS_9allocatorIPNS_16__hash_node_baseIPNS_11__hash_nodeIcPvEEEEEEE8allocateB8ue170006ERS9_m, symObjAddr: 0x148D0, symBinAddr: 0x100015C20, symSize: 0x30 }
  - { offsetInCU: 0x2C1E1, offset: 0x2C1E1, size: 0x8, addend: 0x0, symName: __ZNSt3__125__bucket_list_deallocatorINS_9allocatorIPNS_16__hash_node_baseIPNS_11__hash_nodeIcPvEEEEEEE4sizeB8ue170006Ev, symObjAddr: 0x14900, symBinAddr: 0x100015C50, symSize: 0x20 }
  - { offsetInCU: 0x2C207, offset: 0x2C207, size: 0x8, addend: 0x0, symName: __ZNSt3__117__compressed_pairIPPNS_16__hash_node_baseIPNS_11__hash_nodeIcPvEEEENS_25__bucket_list_deallocatorINS_9allocatorIS7_EEEEE6secondB8ue170006Ev, symObjAddr: 0x14920, symBinAddr: 0x100015C70, symSize: 0x20 }
  - { offsetInCU: 0x2C22D, offset: 0x2C22D, size: 0x8, addend: 0x0, symName: __ZNSt3__122__compressed_pair_elemINS_25__bucket_list_deallocatorINS_9allocatorIPNS_16__hash_node_baseIPNS_11__hash_nodeIcPvEEEEEEEELi1ELb0EE5__getB8ue170006Ev, symObjAddr: 0x14940, symBinAddr: 0x100015C90, symSize: 0x10 }
  - { offsetInCU: 0x2C253, offset: 0x2C253, size: 0x8, addend: 0x0, symName: __ZNSt3__117__compressed_pairImNS_9allocatorIPNS_16__hash_node_baseIPNS_11__hash_nodeIcPvEEEEEEE6secondB8ue170006Ev, symObjAddr: 0x14950, symBinAddr: 0x100015CA0, symSize: 0x20 }
  - { offsetInCU: 0x2C279, offset: 0x2C279, size: 0x8, addend: 0x0, symName: __ZNSt3__122__compressed_pair_elemINS_9allocatorIPNS_16__hash_node_baseIPNS_11__hash_nodeIcPvEEEEEELi1ELb1EE5__getB8ue170006Ev, symObjAddr: 0x14970, symBinAddr: 0x100015CC0, symSize: 0x10 }
  - { offsetInCU: 0x2C29F, offset: 0x2C29F, size: 0x8, addend: 0x0, symName: __ZNSt3__117__compressed_pairIPPNS_16__hash_node_baseIPNS_11__hash_nodeIcPvEEEENS_25__bucket_list_deallocatorINS_9allocatorIS7_EEEEE5firstB8ue170006Ev, symObjAddr: 0x14980, symBinAddr: 0x100015CD0, symSize: 0x20 }
  - { offsetInCU: 0x2C2C5, offset: 0x2C2C5, size: 0x8, addend: 0x0, symName: __ZNSt3__125__bucket_list_deallocatorINS_9allocatorIPNS_16__hash_node_baseIPNS_11__hash_nodeIcPvEEEEEEEclB8ue170006EPS8_, symObjAddr: 0x149A0, symBinAddr: 0x100015CF0, symSize: 0x50 }
  - { offsetInCU: 0x2C2FA, offset: 0x2C2FA, size: 0x8, addend: 0x0, symName: __ZNSt3__122__compressed_pair_elemIPPNS_16__hash_node_baseIPNS_11__hash_nodeIcPvEEEELi0ELb0EE5__getB8ue170006Ev, symObjAddr: 0x149F0, symBinAddr: 0x100015D40, symSize: 0x10 }
  - { offsetInCU: 0x2C320, offset: 0x2C320, size: 0x8, addend: 0x0, symName: __ZNSt3__116allocator_traitsINS_9allocatorIPNS_16__hash_node_baseIPNS_11__hash_nodeIcPvEEEEEEE10deallocateB8ue170006ERS9_PS8_m, symObjAddr: 0x14A00, symBinAddr: 0x100015D50, symSize: 0x30 }
  - { offsetInCU: 0x2C362, offset: 0x2C362, size: 0x8, addend: 0x0, symName: __ZNSt3__19allocatorIPNS_16__hash_node_baseIPNS_11__hash_nodeIcPvEEEEE10deallocateB8ue170006EPS7_m, symObjAddr: 0x14A30, symBinAddr: 0x100015D80, symSize: 0x70 }
  - { offsetInCU: 0x2C3A4, offset: 0x2C3A4, size: 0x8, addend: 0x0, symName: __ZNSt3__19allocatorIPNS_16__hash_node_baseIPNS_11__hash_nodeIcPvEEEEE8allocateB8ue170006Em, symObjAddr: 0x14AA0, symBinAddr: 0x100015DF0, symSize: 0x80 }
  - { offsetInCU: 0x2C3E2, offset: 0x2C3E2, size: 0x8, addend: 0x0, symName: __ZNSt3__116allocator_traitsINS_9allocatorIPNS_16__hash_node_baseIPNS_11__hash_nodeIcPvEEEEEEE8max_sizeB8ue170006IS9_vEEmRKS9_, symObjAddr: 0x14B20, symBinAddr: 0x100015E70, symSize: 0x20 }
  - { offsetInCU: 0x2C410, offset: 0x2C410, size: 0x8, addend: 0x0, symName: __ZNKSt3__19allocatorIPNS_16__hash_node_baseIPNS_11__hash_nodeIcPvEEEEE8max_sizeB8ue170006Ev, symObjAddr: 0x14B40, symBinAddr: 0x100015E90, symSize: 0x20 }
  - { offsetInCU: 0x2C436, offset: 0x2C436, size: 0x8, addend: 0x0, symName: __ZNSt3__117__compressed_pairImNS_9allocatorIPNS_16__hash_node_baseIPNS_11__hash_nodeIcPvEEEEEEE5firstB8ue170006Ev, symObjAddr: 0x14B60, symBinAddr: 0x100015EB0, symSize: 0x20 }
  - { offsetInCU: 0x2C45C, offset: 0x2C45C, size: 0x8, addend: 0x0, symName: __ZNSt3__122__compressed_pair_elemINS_16__hash_node_baseIPNS_11__hash_nodeIcPvEEEELi0ELb0EE5__getB8ue170006Ev, symObjAddr: 0x14BA0, symBinAddr: 0x100015EF0, symSize: 0x10 }
  - { offsetInCU: 0x2C482, offset: 0x2C482, size: 0x8, addend: 0x0, symName: __ZNKSt3__117__compressed_pairIPNS_11__hash_nodeIcPvEENS_22__hash_node_destructorINS_9allocatorIS3_EEEEE5firstB8ue170006Ev, symObjAddr: 0x14BB0, symBinAddr: 0x100015F00, symSize: 0x20 }
  - { offsetInCU: 0x2C4A8, offset: 0x2C4A8, size: 0x8, addend: 0x0, symName: __ZNKSt3__122__compressed_pair_elemIPNS_11__hash_nodeIcPvEELi0ELb0EE5__getB8ue170006Ev, symObjAddr: 0x14BD0, symBinAddr: 0x100015F20, symSize: 0x10 }
  - { offsetInCU: 0x2C4CE, offset: 0x2C4CE, size: 0x8, addend: 0x0, symName: __ZNSt3__117__compressed_pairIPNS_11__hash_nodeIcPvEENS_22__hash_node_destructorINS_9allocatorIS3_EEEEE5firstB8ue170006Ev, symObjAddr: 0x14BE0, symBinAddr: 0x100015F30, symSize: 0x20 }
  - { offsetInCU: 0x2C4F4, offset: 0x2C4F4, size: 0x8, addend: 0x0, symName: __ZNSt3__122__compressed_pair_elemIPNS_11__hash_nodeIcPvEELi0ELb0EE5__getB8ue170006Ev, symObjAddr: 0x14C00, symBinAddr: 0x100015F50, symSize: 0x10 }
  - { offsetInCU: 0x2C51A, offset: 0x2C51A, size: 0x8, addend: 0x0, symName: __ZNSt3__110unique_ptrINS_11__hash_nodeIcPvEENS_22__hash_node_destructorINS_9allocatorIS3_EEEEED2B8ue170006Ev, symObjAddr: 0x14C10, symBinAddr: 0x100015F60, symSize: 0x20 }
  - { offsetInCU: 0x2C544, offset: 0x2C544, size: 0x8, addend: 0x0, symName: __ZNSt3__110unique_ptrINS_11__hash_nodeIcPvEENS_22__hash_node_destructorINS_9allocatorIS3_EEEEE5resetB8ue170006EPS3_, symObjAddr: 0x14C30, symBinAddr: 0x100015F80, symSize: 0x70 }
  - { offsetInCU: 0x2C588, offset: 0x2C588, size: 0x8, addend: 0x0, symName: __ZNSt3__122__hash_node_destructorINS_9allocatorINS_11__hash_nodeIcPvEEEEEclB8ue170006EPS4_, symObjAddr: 0x14CA0, symBinAddr: 0x100015FF0, symSize: 0x90 }
  - { offsetInCU: 0x2C5BD, offset: 0x2C5BD, size: 0x8, addend: 0x0, symName: __ZNSt3__116allocator_traitsINS_9allocatorINS_11__hash_nodeIcPvEEEEE7destroyB8ue170006IcvvEEvRS5_PT_, symObjAddr: 0x14D30, symBinAddr: 0x100016080, symSize: 0x10 }
  - { offsetInCU: 0x2C5F7, offset: 0x2C5F7, size: 0x8, addend: 0x0, symName: __ZNSt3__116allocator_traitsINS_9allocatorINS_11__hash_nodeIcPvEEEEE10deallocateB8ue170006ERS5_PS4_m, symObjAddr: 0x14D40, symBinAddr: 0x100016090, symSize: 0x30 }
  - { offsetInCU: 0x2C639, offset: 0x2C639, size: 0x8, addend: 0x0, symName: __ZNSt3__19allocatorINS_11__hash_nodeIcPvEEE10deallocateB8ue170006EPS3_m, symObjAddr: 0x14D70, symBinAddr: 0x1000160C0, symSize: 0x80 }
  - { offsetInCU: 0x2C67B, offset: 0x2C67B, size: 0x8, addend: 0x0, symName: __ZNSt3__115__hash_iteratorIPNS_11__hash_nodeIcPvEEEC2B8ue170006EPNS_16__hash_node_baseIS4_EE, symObjAddr: 0x14DF0, symBinAddr: 0x100016140, symSize: 0x20 }
  - { offsetInCU: 0x2C6B4, offset: 0x2C6B4, size: 0x8, addend: 0x0, symName: __ZNSt3__14pairINS_15__hash_iteratorIPNS_11__hash_nodeIcPvEEEEbEC2B8ue170006ERKS6_RKb, symObjAddr: 0x14E10, symBinAddr: 0x100016160, symSize: 0x30 }
  - { offsetInCU: 0x2C6FA, offset: 0x2C6FA, size: 0x8, addend: 0x0, symName: __ZNSt3__14pairINS_21__hash_const_iteratorIPNS_11__hash_nodeIcPvEEEEbEC2B8ue170006INS_15__hash_iteratorIS5_EEbEERKNS0_IT_T0_EE, symObjAddr: 0x14E40, symBinAddr: 0x100016190, symSize: 0x40 }
  - { offsetInCU: 0x2C744, offset: 0x2C744, size: 0x8, addend: 0x0, symName: __ZNSt3__121__hash_const_iteratorIPNS_11__hash_nodeIcPvEEEC1B8ue170006ERKNS_15__hash_iteratorIS4_EE, symObjAddr: 0x14E80, symBinAddr: 0x1000161D0, symSize: 0x30 }
  - { offsetInCU: 0x2C77D, offset: 0x2C77D, size: 0x8, addend: 0x0, symName: __ZNSt3__121__hash_const_iteratorIPNS_11__hash_nodeIcPvEEEC2B8ue170006ERKNS_15__hash_iteratorIS4_EE, symObjAddr: 0x14EB0, symBinAddr: 0x100016200, symSize: 0x20 }
  - { offsetInCU: 0x2C7B6, offset: 0x2C7B6, size: 0x8, addend: 0x0, symName: __ZNSt3__113unordered_setIcNS_4hashIcEENS_8equal_toIcEENS_9allocatorIcEEEC2B8ue170006Ev, symObjAddr: 0x14ED0, symBinAddr: 0x100016220, symSize: 0x20 }
  - { offsetInCU: 0x2C7E0, offset: 0x2C7E0, size: 0x8, addend: 0x0, symName: __ZNSt3__112__hash_tableIcNS_4hashIcEENS_8equal_toIcEENS_9allocatorIcEEEC1Ev, symObjAddr: 0x14EF0, symBinAddr: 0x100016240, symSize: 0x20 }
  - { offsetInCU: 0x2C80C, offset: 0x2C80C, size: 0x8, addend: 0x0, symName: __ZNSt3__112__hash_tableIcNS_4hashIcEENS_8equal_toIcEENS_9allocatorIcEEEC2Ev, symObjAddr: 0x14F10, symBinAddr: 0x100016260, symSize: 0xB0 }
  - { offsetInCU: 0x2C838, offset: 0x2C838, size: 0x8, addend: 0x0, symName: __ZNSt3__110unique_ptrIA_PNS_16__hash_node_baseIPNS_11__hash_nodeIcPvEEEENS_25__bucket_list_deallocatorINS_9allocatorIS7_EEEEEC1B8ue170006ILb1EvEEv, symObjAddr: 0x14FC0, symBinAddr: 0x100016310, symSize: 0x20 }
  - { offsetInCU: 0x2C86D, offset: 0x2C86D, size: 0x8, addend: 0x0, symName: __ZNSt3__117__compressed_pairINS_16__hash_node_baseIPNS_11__hash_nodeIcPvEEEENS_9allocatorIS4_EEEC1B8ue170006ILb1EvEEv, symObjAddr: 0x14FE0, symBinAddr: 0x100016330, symSize: 0x20 }
  - { offsetInCU: 0x2C8A2, offset: 0x2C8A2, size: 0x8, addend: 0x0, symName: __ZNSt3__117__compressed_pairImNS_4hashIcEEEC1B8ue170006IiNS_18__default_init_tagEEEOT_OT0_, symObjAddr: 0x15000, symBinAddr: 0x100016350, symSize: 0x30 }
  - { offsetInCU: 0x2C8FF, offset: 0x2C8FF, size: 0x8, addend: 0x0, symName: __ZNSt3__117__compressed_pairIfNS_8equal_toIcEEEC1B8ue170006IfNS_18__default_init_tagEEEOT_OT0_, symObjAddr: 0x15030, symBinAddr: 0x100016380, symSize: 0x30 }
  - { offsetInCU: 0x2C957, offset: 0x2C957, size: 0x8, addend: 0x0, symName: __ZNSt3__110unique_ptrIA_PNS_16__hash_node_baseIPNS_11__hash_nodeIcPvEEEENS_25__bucket_list_deallocatorINS_9allocatorIS7_EEEEED1B8ue170006Ev, symObjAddr: 0x15060, symBinAddr: 0x1000163B0, symSize: 0x20 }
  - { offsetInCU: 0x2C981, offset: 0x2C981, size: 0x8, addend: 0x0, symName: __ZNSt3__110unique_ptrIA_PNS_16__hash_node_baseIPNS_11__hash_nodeIcPvEEEENS_25__bucket_list_deallocatorINS_9allocatorIS7_EEEEEC2B8ue170006ILb1EvEEv, symObjAddr: 0x15080, symBinAddr: 0x1000163D0, symSize: 0x40 }
  - { offsetInCU: 0x2C9BB, offset: 0x2C9BB, size: 0x8, addend: 0x0, symName: __ZNSt3__117__compressed_pairIPPNS_16__hash_node_baseIPNS_11__hash_nodeIcPvEEEENS_25__bucket_list_deallocatorINS_9allocatorIS7_EEEEEC1B8ue170006INS_16__value_init_tagESF_EEOT_OT0_, symObjAddr: 0x150C0, symBinAddr: 0x100016410, symSize: 0x30 }
  - { offsetInCU: 0x2CA13, offset: 0x2CA13, size: 0x8, addend: 0x0, symName: __ZNSt3__117__compressed_pairIPPNS_16__hash_node_baseIPNS_11__hash_nodeIcPvEEEENS_25__bucket_list_deallocatorINS_9allocatorIS7_EEEEEC2B8ue170006INS_16__value_init_tagESF_EEOT_OT0_, symObjAddr: 0x150F0, symBinAddr: 0x100016440, symSize: 0x40 }
  - { offsetInCU: 0x2CA6B, offset: 0x2CA6B, size: 0x8, addend: 0x0, symName: __ZNSt3__122__compressed_pair_elemIPPNS_16__hash_node_baseIPNS_11__hash_nodeIcPvEEEELi0ELb0EEC2B8ue170006ENS_16__value_init_tagE, symObjAddr: 0x15130, symBinAddr: 0x100016480, symSize: 0x20 }
  - { offsetInCU: 0x2CA9F, offset: 0x2CA9F, size: 0x8, addend: 0x0, symName: __ZNSt3__122__compressed_pair_elemINS_25__bucket_list_deallocatorINS_9allocatorIPNS_16__hash_node_baseIPNS_11__hash_nodeIcPvEEEEEEEELi1ELb0EEC2B8ue170006ENS_16__value_init_tagE, symObjAddr: 0x15150, symBinAddr: 0x1000164A0, symSize: 0x20 }
  - { offsetInCU: 0x2CAD3, offset: 0x2CAD3, size: 0x8, addend: 0x0, symName: __ZNSt3__125__bucket_list_deallocatorINS_9allocatorIPNS_16__hash_node_baseIPNS_11__hash_nodeIcPvEEEEEEEC1B8ue170006Ev, symObjAddr: 0x15170, symBinAddr: 0x1000164C0, symSize: 0x20 }
  - { offsetInCU: 0x2CAFD, offset: 0x2CAFD, size: 0x8, addend: 0x0, symName: __ZNSt3__125__bucket_list_deallocatorINS_9allocatorIPNS_16__hash_node_baseIPNS_11__hash_nodeIcPvEEEEEEEC2B8ue170006Ev, symObjAddr: 0x15190, symBinAddr: 0x1000164E0, symSize: 0x30 }
  - { offsetInCU: 0x2CB27, offset: 0x2CB27, size: 0x8, addend: 0x0, symName: __ZNSt3__117__compressed_pairImNS_9allocatorIPNS_16__hash_node_baseIPNS_11__hash_nodeIcPvEEEEEEEC1B8ue170006IiNS_18__default_init_tagEEEOT_OT0_, symObjAddr: 0x151C0, symBinAddr: 0x100016510, symSize: 0x30 }
  - { offsetInCU: 0x2CB7F, offset: 0x2CB7F, size: 0x8, addend: 0x0, symName: __ZNSt3__117__compressed_pairImNS_9allocatorIPNS_16__hash_node_baseIPNS_11__hash_nodeIcPvEEEEEEEC2B8ue170006IiNS_18__default_init_tagEEEOT_OT0_, symObjAddr: 0x151F0, symBinAddr: 0x100016540, symSize: 0x40 }
  - { offsetInCU: 0x2CBD7, offset: 0x2CBD7, size: 0x8, addend: 0x0, symName: __ZNSt3__122__compressed_pair_elemINS_9allocatorIPNS_16__hash_node_baseIPNS_11__hash_nodeIcPvEEEEEELi1ELb1EEC2B8ue170006ENS_18__default_init_tagE, symObjAddr: 0x15230, symBinAddr: 0x100016580, symSize: 0x20 }
  - { offsetInCU: 0x2CC0B, offset: 0x2CC0B, size: 0x8, addend: 0x0, symName: __ZNSt3__19allocatorIPNS_16__hash_node_baseIPNS_11__hash_nodeIcPvEEEEEC2B8ue170006Ev, symObjAddr: 0x15250, symBinAddr: 0x1000165A0, symSize: 0x20 }
  - { offsetInCU: 0x2CC35, offset: 0x2CC35, size: 0x8, addend: 0x0, symName: __ZNSt3__116__non_trivial_ifILb1ENS_9allocatorIPNS_16__hash_node_baseIPNS_11__hash_nodeIcPvEEEEEEEC2B8ue170006Ev, symObjAddr: 0x15270, symBinAddr: 0x1000165C0, symSize: 0x10 }
  - { offsetInCU: 0x2CC5F, offset: 0x2CC5F, size: 0x8, addend: 0x0, symName: __ZNSt3__117__compressed_pairINS_16__hash_node_baseIPNS_11__hash_nodeIcPvEEEENS_9allocatorIS4_EEEC2B8ue170006ILb1EvEEv, symObjAddr: 0x15280, symBinAddr: 0x1000165D0, symSize: 0x30 }
  - { offsetInCU: 0x2CC94, offset: 0x2CC94, size: 0x8, addend: 0x0, symName: __ZNSt3__122__compressed_pair_elemINS_16__hash_node_baseIPNS_11__hash_nodeIcPvEEEELi0ELb0EEC2B8ue170006ENS_16__value_init_tagE, symObjAddr: 0x152B0, symBinAddr: 0x100016600, symSize: 0x20 }
  - { offsetInCU: 0x2CCC8, offset: 0x2CCC8, size: 0x8, addend: 0x0, symName: __ZNSt3__122__compressed_pair_elemINS_9allocatorINS_11__hash_nodeIcPvEEEELi1ELb1EEC2B8ue170006ENS_16__value_init_tagE, symObjAddr: 0x152D0, symBinAddr: 0x100016620, symSize: 0x20 }
  - { offsetInCU: 0x2CCFC, offset: 0x2CCFC, size: 0x8, addend: 0x0, symName: __ZNSt3__116__hash_node_baseIPNS_11__hash_nodeIcPvEEEC1B8ue170006Ev, symObjAddr: 0x152F0, symBinAddr: 0x100016640, symSize: 0x20 }
  - { offsetInCU: 0x2CD26, offset: 0x2CD26, size: 0x8, addend: 0x0, symName: __ZNSt3__116__hash_node_baseIPNS_11__hash_nodeIcPvEEEC2B8ue170006Ev, symObjAddr: 0x15310, symBinAddr: 0x100016660, symSize: 0x20 }
  - { offsetInCU: 0x2CD50, offset: 0x2CD50, size: 0x8, addend: 0x0, symName: __ZNSt3__19allocatorINS_11__hash_nodeIcPvEEEC2B8ue170006Ev, symObjAddr: 0x15330, symBinAddr: 0x100016680, symSize: 0x20 }
  - { offsetInCU: 0x2CD7A, offset: 0x2CD7A, size: 0x8, addend: 0x0, symName: __ZNSt3__116__non_trivial_ifILb1ENS_9allocatorINS_11__hash_nodeIcPvEEEEEC2B8ue170006Ev, symObjAddr: 0x15350, symBinAddr: 0x1000166A0, symSize: 0x10 }
  - { offsetInCU: 0x2CDA4, offset: 0x2CDA4, size: 0x8, addend: 0x0, symName: __ZNSt3__117__compressed_pairImNS_4hashIcEEEC2B8ue170006IiNS_18__default_init_tagEEEOT_OT0_, symObjAddr: 0x15360, symBinAddr: 0x1000166B0, symSize: 0x40 }
  - { offsetInCU: 0x2CDFC, offset: 0x2CDFC, size: 0x8, addend: 0x0, symName: __ZNSt3__122__compressed_pair_elemINS_4hashIcEELi1ELb1EEC2B8ue170006ENS_18__default_init_tagE, symObjAddr: 0x153A0, symBinAddr: 0x1000166F0, symSize: 0x10 }
  - { offsetInCU: 0x2CE30, offset: 0x2CE30, size: 0x8, addend: 0x0, symName: __ZNSt3__117__compressed_pairIfNS_8equal_toIcEEEC2B8ue170006IfNS_18__default_init_tagEEEOT_OT0_, symObjAddr: 0x153B0, symBinAddr: 0x100016700, symSize: 0x40 }
  - { offsetInCU: 0x2CE88, offset: 0x2CE88, size: 0x8, addend: 0x0, symName: __ZNSt3__122__compressed_pair_elemIfLi0ELb0EEC2B8ue170006IfvEEOT_, symObjAddr: 0x153F0, symBinAddr: 0x100016740, symSize: 0x20 }
  - { offsetInCU: 0x2CECA, offset: 0x2CECA, size: 0x8, addend: 0x0, symName: __ZNSt3__122__compressed_pair_elemINS_8equal_toIcEELi1ELb1EEC2B8ue170006ENS_18__default_init_tagE, symObjAddr: 0x15410, symBinAddr: 0x100016760, symSize: 0x10 }
  - { offsetInCU: 0x2CEFE, offset: 0x2CEFE, size: 0x8, addend: 0x0, symName: __ZNSt3__110unique_ptrIA_PNS_16__hash_node_baseIPNS_11__hash_nodeIcPvEEEENS_25__bucket_list_deallocatorINS_9allocatorIS7_EEEEED2B8ue170006Ev, symObjAddr: 0x15420, symBinAddr: 0x100016770, symSize: 0x20 }
  - { offsetInCU: 0x2CF28, offset: 0x2CF28, size: 0x8, addend: 0x0, symName: __ZNSt3__110unique_ptrIA_PNS_16__hash_node_baseIPNS_11__hash_nodeIcPvEEEENS_25__bucket_list_deallocatorINS_9allocatorIS7_EEEEE5resetB8ue170006EDn, symObjAddr: 0x15440, symBinAddr: 0x100016790, symSize: 0x60 }
  - { offsetInCU: 0x2CF68, offset: 0x2CF68, size: 0x8, addend: 0x0, symName: __ZNSt3__113unordered_setIcNS_4hashIcEENS_8equal_toIcEENS_9allocatorIcEEED2B8ue170006Ev, symObjAddr: 0x154A0, symBinAddr: 0x1000167F0, symSize: 0x20 }
  - { offsetInCU: 0x2CF92, offset: 0x2CF92, size: 0x8, addend: 0x0, symName: __ZNSt3__112__hash_tableIcNS_4hashIcEENS_8equal_toIcEENS_9allocatorIcEEED1Ev, symObjAddr: 0x154C0, symBinAddr: 0x100016810, symSize: 0x20 }
  - { offsetInCU: 0x2CFBE, offset: 0x2CFBE, size: 0x8, addend: 0x0, symName: __ZNSt3__112__hash_tableIcNS_4hashIcEENS_8equal_toIcEENS_9allocatorIcEEED2Ev, symObjAddr: 0x154E0, symBinAddr: 0x100016830, symSize: 0x40 }
  - { offsetInCU: 0x2CFEA, offset: 0x2CFEA, size: 0x8, addend: 0x0, symName: __ZNSt3__112__hash_tableIcNS_4hashIcEENS_8equal_toIcEENS_9allocatorIcEEE17__deallocate_nodeEPNS_16__hash_node_baseIPNS_11__hash_nodeIcPvEEEE, symObjAddr: 0x15520, symBinAddr: 0x100016870, symSize: 0x90 }
  - { offsetInCU: 0x2D05C, offset: 0x2D05C, size: 0x8, addend: 0x0, symName: __ZNSt3__16vectorIbNS_9allocatorIbEEE10__make_refB8ue170006Em, symObjAddr: 0x155B0, symBinAddr: 0x100016900, symSize: 0x50 }
  - { offsetInCU: 0x2D091, offset: 0x2D091, size: 0x8, addend: 0x0, symName: __ZNSt3__115__bit_referenceINS_6vectorIbNS_9allocatorIbEEEELb1EEC1B8ue170006EPmm, symObjAddr: 0x15600, symBinAddr: 0x100016950, symSize: 0x30 }
  - { offsetInCU: 0x2D0D7, offset: 0x2D0D7, size: 0x8, addend: 0x0, symName: __ZNSt3__115__bit_referenceINS_6vectorIbNS_9allocatorIbEEEELb1EEC2B8ue170006EPmm, symObjAddr: 0x15630, symBinAddr: 0x100016980, symSize: 0x30 }
  - { offsetInCU: 0x2D11D, offset: 0x2D11D, size: 0x8, addend: 0x0, symName: __ZNSt3__16vectorIiNS_9allocatorIiEEEC2ERKS3_, symObjAddr: 0x15660, symBinAddr: 0x1000169B0, symSize: 0xA0 }
  - { offsetInCU: 0x2D158, offset: 0x2D158, size: 0x8, addend: 0x0, symName: __ZNSt3__116allocator_traitsINS_9allocatorIiEEE37select_on_container_copy_constructionB8ue170006IS2_vvEES2_RKS2_, symObjAddr: 0x15700, symBinAddr: 0x100016A50, symSize: 0x10 }
  - { offsetInCU: 0x2D18C, offset: 0x2D18C, size: 0x8, addend: 0x0, symName: __ZNSt3__117__compressed_pairIPiNS_9allocatorIiEEEC1B8ue170006IDnS3_EEOT_OT0_, symObjAddr: 0x15710, symBinAddr: 0x100016A60, symSize: 0x30 }
  - { offsetInCU: 0x2D1E4, offset: 0x2D1E4, size: 0x8, addend: 0x0, symName: __ZNSt3__16vectorIiNS_9allocatorIiEEE16__init_with_sizeB8ue170006IPiS5_EEvT_T0_m, symObjAddr: 0x15740, symBinAddr: 0x100016A90, symSize: 0xC0 }
  - { offsetInCU: 0x2D258, offset: 0x2D258, size: 0x8, addend: 0x0, symName: __ZNSt3__117__compressed_pairIPiNS_9allocatorIiEEEC2B8ue170006IDnS3_EEOT_OT0_, symObjAddr: 0x15800, symBinAddr: 0x100016B50, symSize: 0x40 }
  - { offsetInCU: 0x2D2B0, offset: 0x2D2B0, size: 0x8, addend: 0x0, symName: __ZNSt3__122__compressed_pair_elemINS_9allocatorIiEELi1ELb1EEC2B8ue170006IS2_vEEOT_, symObjAddr: 0x15840, symBinAddr: 0x100016B90, symSize: 0x10 }
  - { offsetInCU: 0x2D2F2, offset: 0x2D2F2, size: 0x8, addend: 0x0, symName: __ZNSt3__16vectorIiNS_9allocatorIiEEE18__construct_at_endIPiS5_EEvT_T0_m, symObjAddr: 0x15850, symBinAddr: 0x100016BA0, symSize: 0xA0 }
  - { offsetInCU: 0x2D381, offset: 0x2D381, size: 0x8, addend: 0x0, symName: __ZNSt3__14pairIPiS1_EC1B8ue170006ERKS1_S4_, symObjAddr: 0x15B70, symBinAddr: 0x100016EC0, symSize: 0x30 }
  - { offsetInCU: 0x2D3C7, offset: 0x2D3C7, size: 0x8, addend: 0x0, symName: __ZNSt3__14pairIPiS1_EC2B8ue170006ERKS1_S4_, symObjAddr: 0x15BA0, symBinAddr: 0x100016EF0, symSize: 0x30 }
  - { offsetInCU: 0x2D40D, offset: 0x2D40D, size: 0x8, addend: 0x0, symName: __ZNSt3__129_AllocatorDestroyRangeReverseINS_9allocatorIiEEPiEC1B8ue170006ERS2_RS3_S6_, symObjAddr: 0x15C30, symBinAddr: 0x100016F80, symSize: 0x40 }
  - { offsetInCU: 0x2D464, offset: 0x2D464, size: 0x8, addend: 0x0, symName: __ZNSt3__116allocator_traitsINS_9allocatorIiEEE9constructB8ue170006IiJRiEvEEvRS2_PT_DpOT0_, symObjAddr: 0x15C70, symBinAddr: 0x100016FC0, symSize: 0x30 }
  - { offsetInCU: 0x2D4BB, offset: 0x2D4BB, size: 0x8, addend: 0x0, symName: __ZNSt3__128__exception_guard_exceptionsINS_29_AllocatorDestroyRangeReverseINS_9allocatorIiEEPiEEE10__completeB8ue170006Ev, symObjAddr: 0x15CA0, symBinAddr: 0x100016FF0, symSize: 0x20 }
  - { offsetInCU: 0x2D4E1, offset: 0x2D4E1, size: 0x8, addend: 0x0, symName: __ZNSt3__128__exception_guard_exceptionsINS_29_AllocatorDestroyRangeReverseINS_9allocatorIiEEPiEEED1B8ue170006Ev, symObjAddr: 0x15CC0, symBinAddr: 0x100017010, symSize: 0x20 }
  - { offsetInCU: 0x2D50B, offset: 0x2D50B, size: 0x8, addend: 0x0, symName: __ZNSt3__128__exception_guard_exceptionsINS_29_AllocatorDestroyRangeReverseINS_9allocatorIiEEPiEEEC1B8ue170006ES5_, symObjAddr: 0x15CE0, symBinAddr: 0x100017030, symSize: 0x40 }
  - { offsetInCU: 0x2D543, offset: 0x2D543, size: 0x8, addend: 0x0, symName: __ZNSt3__128__exception_guard_exceptionsINS_29_AllocatorDestroyRangeReverseINS_9allocatorIiEEPiEEEC2B8ue170006ES5_, symObjAddr: 0x15D20, symBinAddr: 0x100017070, symSize: 0x30 }
  - { offsetInCU: 0x2D57B, offset: 0x2D57B, size: 0x8, addend: 0x0, symName: __ZNSt3__129_AllocatorDestroyRangeReverseINS_9allocatorIiEEPiEC2B8ue170006ERS2_RS3_S6_, symObjAddr: 0x15D50, symBinAddr: 0x1000170A0, symSize: 0x40 }
  - { offsetInCU: 0x2D5D2, offset: 0x2D5D2, size: 0x8, addend: 0x0, symName: __ZNSt3__19allocatorIiE9constructB8ue170006IiJRiEEEvPT_DpOT0_, symObjAddr: 0x15D90, symBinAddr: 0x1000170E0, symSize: 0x20 }
  - { offsetInCU: 0x2D628, offset: 0x2D628, size: 0x8, addend: 0x0, symName: __ZNSt3__128__exception_guard_exceptionsINS_29_AllocatorDestroyRangeReverseINS_9allocatorIiEEPiEEED2B8ue170006Ev, symObjAddr: 0x15DB0, symBinAddr: 0x100017100, symSize: 0x30 }
  - { offsetInCU: 0x2D652, offset: 0x2D652, size: 0x8, addend: 0x0, symName: __ZNKSt3__129_AllocatorDestroyRangeReverseINS_9allocatorIiEEPiEclB8ue170006Ev, symObjAddr: 0x15DE0, symBinAddr: 0x100017130, symSize: 0x60 }
  - { offsetInCU: 0x2D678, offset: 0x2D678, size: 0x8, addend: 0x0, symName: __ZNSt3__116reverse_iteratorIPiEC1B8ue170006ES1_, symObjAddr: 0x15EB0, symBinAddr: 0x100017200, symSize: 0x30 }
  - { offsetInCU: 0x2D6B0, offset: 0x2D6B0, size: 0x8, addend: 0x0, symName: __ZNSt3__116reverse_iteratorIPiEppB8ue170006Ev, symObjAddr: 0x15F40, symBinAddr: 0x100017290, symSize: 0x20 }
  - { offsetInCU: 0x2D6D6, offset: 0x2D6D6, size: 0x8, addend: 0x0, symName: __ZNKSt3__116reverse_iteratorIPiE4baseB8ue170006Ev, symObjAddr: 0x15F60, symBinAddr: 0x1000172B0, symSize: 0x20 }
  - { offsetInCU: 0x2D701, offset: 0x2D701, size: 0x8, addend: 0x0, symName: __ZNSt3__119__to_address_helperINS_16reverse_iteratorIPiEEvE6__callB8ue170006ERKS3_, symObjAddr: 0x15F80, symBinAddr: 0x1000172D0, symSize: 0x50 }
  - { offsetInCU: 0x2D724, offset: 0x2D724, size: 0x8, addend: 0x0, symName: __ZNKSt3__116reverse_iteratorIPiEptB8ue170006Ev, symObjAddr: 0x15FD0, symBinAddr: 0x100017320, symSize: 0x20 }
  - { offsetInCU: 0x2D74A, offset: 0x2D74A, size: 0x8, addend: 0x0, symName: __ZNKSt3__116reverse_iteratorIPiEdeB8ue170006Ev, symObjAddr: 0x15FF0, symBinAddr: 0x100017340, symSize: 0x30 }
  - { offsetInCU: 0x2D77E, offset: 0x2D77E, size: 0x8, addend: 0x0, symName: __ZNSt3__116reverse_iteratorIPiEC2B8ue170006ES1_, symObjAddr: 0x16020, symBinAddr: 0x100017370, symSize: 0x30 }
  - { offsetInCU: 0x2D7B6, offset: 0x2D7B6, size: 0x8, addend: 0x0, symName: __ZNSt3__118__unwrap_iter_implIPiLb1EE8__unwrapB8ue170006ES1_, symObjAddr: 0x16050, symBinAddr: 0x1000173A0, symSize: 0x20 }
  - { offsetInCU: 0x2D7D9, offset: 0x2D7D9, size: 0x8, addend: 0x0, symName: __ZNSt3__118__unwrap_iter_implIPiLb1EE8__rewrapB8ue170006ES1_S1_, symObjAddr: 0x16070, symBinAddr: 0x1000173C0, symSize: 0x50 }
  - { offsetInCU: 0x2D80A, offset: 0x2D80A, size: 0x8, addend: 0x0, symName: __ZNSt3__16vectorIdNS_9allocatorIdEEE22__construct_one_at_endB8ue170006IJRKdEEEvDpOT_, symObjAddr: 0x160C0, symBinAddr: 0x100017410, symSize: 0xA0 }
  - { offsetInCU: 0x2D859, offset: 0x2D859, size: 0x8, addend: 0x0, symName: __ZNSt3__16vectorIdNS_9allocatorIdEEE21__push_back_slow_pathIRKdEEvOT_, symObjAddr: 0x16160, symBinAddr: 0x1000174B0, symSize: 0xE0 }
  - { offsetInCU: 0x2D8B7, offset: 0x2D8B7, size: 0x8, addend: 0x0, symName: __ZNSt3__116allocator_traitsINS_9allocatorIdEEE9constructB8ue170006IdJRKdEvEEvRS2_PT_DpOT0_, symObjAddr: 0x16240, symBinAddr: 0x100017590, symSize: 0x30 }
  - { offsetInCU: 0x2D90E, offset: 0x2D90E, size: 0x8, addend: 0x0, symName: __ZNSt3__19allocatorIdE9constructB8ue170006IdJRKdEEEvPT_DpOT0_, symObjAddr: 0x16270, symBinAddr: 0x1000175C0, symSize: 0x30 }
  - { offsetInCU: 0x2D964, offset: 0x2D964, size: 0x8, addend: 0x0, symName: __ZNSt3__16vectorINS0_I4WurdNS_9allocatorIS1_EEEENS2_IS4_EEEC2Em, symObjAddr: 0x162A0, symBinAddr: 0x1000175F0, symSize: 0xE0 }
  - { offsetInCU: 0x2D9B4, offset: 0x2D9B4, size: 0x8, addend: 0x0, symName: __ZNSt3__117__compressed_pairIPNS_6vectorI4WurdNS_9allocatorIS2_EEEENS3_IS5_EEEC1B8ue170006IDnNS_18__default_init_tagEEEOT_OT0_, symObjAddr: 0x16380, symBinAddr: 0x1000176D0, symSize: 0x30 }
  - { offsetInCU: 0x2DA0C, offset: 0x2DA0C, size: 0x8, addend: 0x0, symName: __ZNSt3__16vectorINS0_I4WurdNS_9allocatorIS1_EEEENS2_IS4_EEE16__destroy_vectorC1B8ue170006ERS6_, symObjAddr: 0x163F0, symBinAddr: 0x100017740, symSize: 0x30 }
  - { offsetInCU: 0x2DA45, offset: 0x2DA45, size: 0x8, addend: 0x0, symName: __ZNSt3__16vectorINS0_I4WurdNS_9allocatorIS1_EEEENS2_IS4_EEE11__vallocateB8ue170006Em, symObjAddr: 0x16420, symBinAddr: 0x100017770, symSize: 0xA0 }
  - { offsetInCU: 0x2DA89, offset: 0x2DA89, size: 0x8, addend: 0x0, symName: __ZNSt3__16vectorINS0_I4WurdNS_9allocatorIS1_EEEENS2_IS4_EEE18__construct_at_endEm, symObjAddr: 0x164C0, symBinAddr: 0x100017810, symSize: 0xD0 }
  - { offsetInCU: 0x2DAFB, offset: 0x2DAFB, size: 0x8, addend: 0x0, symName: __ZNSt3__128__exception_guard_exceptionsINS_6vectorINS1_I4WurdNS_9allocatorIS2_EEEENS3_IS5_EEE16__destroy_vectorEE10__completeB8ue170006Ev, symObjAddr: 0x16590, symBinAddr: 0x1000178E0, symSize: 0x20 }
  - { offsetInCU: 0x2DB21, offset: 0x2DB21, size: 0x8, addend: 0x0, symName: __ZNSt3__128__exception_guard_exceptionsINS_6vectorINS1_I4WurdNS_9allocatorIS2_EEEENS3_IS5_EEE16__destroy_vectorEED1B8ue170006Ev, symObjAddr: 0x165B0, symBinAddr: 0x100017900, symSize: 0x20 }
  - { offsetInCU: 0x2DB4B, offset: 0x2DB4B, size: 0x8, addend: 0x0, symName: __ZNSt3__117__compressed_pairIPNS_6vectorI4WurdNS_9allocatorIS2_EEEENS3_IS5_EEEC2B8ue170006IDnNS_18__default_init_tagEEEOT_OT0_, symObjAddr: 0x165D0, symBinAddr: 0x100017920, symSize: 0x40 }
  - { offsetInCU: 0x2DBA3, offset: 0x2DBA3, size: 0x8, addend: 0x0, symName: __ZNSt3__122__compressed_pair_elemIPNS_6vectorI4WurdNS_9allocatorIS2_EEEELi0ELb0EEC2B8ue170006IDnvEEOT_, symObjAddr: 0x16610, symBinAddr: 0x100017960, symSize: 0x20 }
  - { offsetInCU: 0x2DBE5, offset: 0x2DBE5, size: 0x8, addend: 0x0, symName: __ZNSt3__122__compressed_pair_elemINS_9allocatorINS_6vectorI4WurdNS1_IS3_EEEEEELi1ELb1EEC2B8ue170006ENS_18__default_init_tagE, symObjAddr: 0x16630, symBinAddr: 0x100017980, symSize: 0x20 }
  - { offsetInCU: 0x2DC19, offset: 0x2DC19, size: 0x8, addend: 0x0, symName: __ZNSt3__19allocatorINS_6vectorI4WurdNS0_IS2_EEEEEC2B8ue170006Ev, symObjAddr: 0x16650, symBinAddr: 0x1000179A0, symSize: 0x20 }
  - { offsetInCU: 0x2DC43, offset: 0x2DC43, size: 0x8, addend: 0x0, symName: __ZNSt3__116__non_trivial_ifILb1ENS_9allocatorINS_6vectorI4WurdNS1_IS3_EEEEEEEC2B8ue170006Ev, symObjAddr: 0x16670, symBinAddr: 0x1000179C0, symSize: 0x10 }
  - { offsetInCU: 0x2DC6D, offset: 0x2DC6D, size: 0x8, addend: 0x0, symName: __ZNSt3__128__exception_guard_exceptionsINS_6vectorINS1_I4WurdNS_9allocatorIS2_EEEENS3_IS5_EEE16__destroy_vectorEEC1B8ue170006ES8_, symObjAddr: 0x16680, symBinAddr: 0x1000179D0, symSize: 0x30 }
  - { offsetInCU: 0x2DCA5, offset: 0x2DCA5, size: 0x8, addend: 0x0, symName: __ZNSt3__128__exception_guard_exceptionsINS_6vectorINS1_I4WurdNS_9allocatorIS2_EEEENS3_IS5_EEE16__destroy_vectorEEC2B8ue170006ES8_, symObjAddr: 0x166B0, symBinAddr: 0x100017A00, symSize: 0x20 }
  - { offsetInCU: 0x2DCDD, offset: 0x2DCDD, size: 0x8, addend: 0x0, symName: __ZNSt3__16vectorINS0_I4WurdNS_9allocatorIS1_EEEENS2_IS4_EEE16__destroy_vectorC2B8ue170006ERS6_, symObjAddr: 0x166D0, symBinAddr: 0x100017A20, symSize: 0x20 }
  - { offsetInCU: 0x2DD16, offset: 0x2DD16, size: 0x8, addend: 0x0, symName: __ZNKSt3__16vectorINS0_I4WurdNS_9allocatorIS1_EEEENS2_IS4_EEE8max_sizeEv, symObjAddr: 0x166F0, symBinAddr: 0x100017A40, symSize: 0x70 }
  - { offsetInCU: 0x2DD3E, offset: 0x2DD3E, size: 0x8, addend: 0x0, symName: __ZNKSt3__16vectorINS0_I4WurdNS_9allocatorIS1_EEEENS2_IS4_EEE20__throw_length_errorB8ue170006Ev, symObjAddr: 0x16760, symBinAddr: 0x100017AB0, symSize: 0x20 }
  - { offsetInCU: 0x2DD64, offset: 0x2DD64, size: 0x8, addend: 0x0, symName: __ZNSt3__16vectorINS0_I4WurdNS_9allocatorIS1_EEEENS2_IS4_EEE7__allocB8ue170006Ev, symObjAddr: 0x167C0, symBinAddr: 0x100017B10, symSize: 0x20 }
  - { offsetInCU: 0x2DD8A, offset: 0x2DD8A, size: 0x8, addend: 0x0, symName: __ZNSt3__16vectorINS0_I4WurdNS_9allocatorIS1_EEEENS2_IS4_EEE9__end_capB8ue170006Ev, symObjAddr: 0x167E0, symBinAddr: 0x100017B30, symSize: 0x20 }
  - { offsetInCU: 0x2DDB0, offset: 0x2DDB0, size: 0x8, addend: 0x0, symName: __ZNKSt3__16vectorINS0_I4WurdNS_9allocatorIS1_EEEENS2_IS4_EEE14__annotate_newB8ue170006Em, symObjAddr: 0x16800, symBinAddr: 0x100017B50, symSize: 0xA0 }
  - { offsetInCU: 0x2DDEF, offset: 0x2DDEF, size: 0x8, addend: 0x0, symName: __ZNSt3__116allocator_traitsINS_9allocatorINS_6vectorI4WurdNS1_IS3_EEEEEEE8max_sizeB8ue170006IS6_vEEmRKS6_, symObjAddr: 0x168A0, symBinAddr: 0x100017BF0, symSize: 0x20 }
  - { offsetInCU: 0x2DE1D, offset: 0x2DE1D, size: 0x8, addend: 0x0, symName: __ZNKSt3__16vectorINS0_I4WurdNS_9allocatorIS1_EEEENS2_IS4_EEE7__allocB8ue170006Ev, symObjAddr: 0x168C0, symBinAddr: 0x100017C10, symSize: 0x20 }
  - { offsetInCU: 0x2DE43, offset: 0x2DE43, size: 0x8, addend: 0x0, symName: __ZNKSt3__19allocatorINS_6vectorI4WurdNS0_IS2_EEEEE8max_sizeB8ue170006Ev, symObjAddr: 0x168E0, symBinAddr: 0x100017C30, symSize: 0x20 }
  - { offsetInCU: 0x2DE69, offset: 0x2DE69, size: 0x8, addend: 0x0, symName: __ZNKSt3__117__compressed_pairIPNS_6vectorI4WurdNS_9allocatorIS2_EEEENS3_IS5_EEE6secondB8ue170006Ev, symObjAddr: 0x16900, symBinAddr: 0x100017C50, symSize: 0x20 }
  - { offsetInCU: 0x2DE8F, offset: 0x2DE8F, size: 0x8, addend: 0x0, symName: __ZNKSt3__122__compressed_pair_elemINS_9allocatorINS_6vectorI4WurdNS1_IS3_EEEEEELi1ELb1EE5__getB8ue170006Ev, symObjAddr: 0x16920, symBinAddr: 0x100017C70, symSize: 0x10 }
  - { offsetInCU: 0x2DEB5, offset: 0x2DEB5, size: 0x8, addend: 0x0, symName: __ZNSt3__19allocatorINS_6vectorI4WurdNS0_IS2_EEEEE8allocateB8ue170006Em, symObjAddr: 0x16930, symBinAddr: 0x100017C80, symSize: 0x80 }
  - { offsetInCU: 0x2DEE9, offset: 0x2DEE9, size: 0x8, addend: 0x0, symName: __ZNSt3__117__compressed_pairIPNS_6vectorI4WurdNS_9allocatorIS2_EEEENS3_IS5_EEE6secondB8ue170006Ev, symObjAddr: 0x169B0, symBinAddr: 0x100017D00, symSize: 0x20 }
  - { offsetInCU: 0x2DF0F, offset: 0x2DF0F, size: 0x8, addend: 0x0, symName: __ZNSt3__122__compressed_pair_elemINS_9allocatorINS_6vectorI4WurdNS1_IS3_EEEEEELi1ELb1EE5__getB8ue170006Ev, symObjAddr: 0x169D0, symBinAddr: 0x100017D20, symSize: 0x10 }
  - { offsetInCU: 0x2DF35, offset: 0x2DF35, size: 0x8, addend: 0x0, symName: __ZNSt3__117__compressed_pairIPNS_6vectorI4WurdNS_9allocatorIS2_EEEENS3_IS5_EEE5firstB8ue170006Ev, symObjAddr: 0x169E0, symBinAddr: 0x100017D30, symSize: 0x20 }
  - { offsetInCU: 0x2DF5B, offset: 0x2DF5B, size: 0x8, addend: 0x0, symName: __ZNSt3__122__compressed_pair_elemIPNS_6vectorI4WurdNS_9allocatorIS2_EEEELi0ELb0EE5__getB8ue170006Ev, symObjAddr: 0x16A00, symBinAddr: 0x100017D50, symSize: 0x10 }
  - { offsetInCU: 0x2DF81, offset: 0x2DF81, size: 0x8, addend: 0x0, symName: __ZNKSt3__16vectorINS0_I4WurdNS_9allocatorIS1_EEEENS2_IS4_EEE31__annotate_contiguous_containerB8ue170006EPKvS8_S8_S8_, symObjAddr: 0x16A10, symBinAddr: 0x100017D60, symSize: 0x20 }
  - { offsetInCU: 0x2DFD3, offset: 0x2DFD3, size: 0x8, addend: 0x0, symName: __ZNKSt3__16vectorINS0_I4WurdNS_9allocatorIS1_EEEENS2_IS4_EEE4dataB8ue170006Ev, symObjAddr: 0x16A30, symBinAddr: 0x100017D80, symSize: 0x20 }
  - { offsetInCU: 0x2DFF9, offset: 0x2DFF9, size: 0x8, addend: 0x0, symName: __ZNKSt3__16vectorINS0_I4WurdNS_9allocatorIS1_EEEENS2_IS4_EEE8capacityB8ue170006Ev, symObjAddr: 0x16A50, symBinAddr: 0x100017DA0, symSize: 0x40 }
  - { offsetInCU: 0x2E01F, offset: 0x2E01F, size: 0x8, addend: 0x0, symName: __ZNKSt3__16vectorINS0_I4WurdNS_9allocatorIS1_EEEENS2_IS4_EEE9__end_capB8ue170006Ev, symObjAddr: 0x16AA0, symBinAddr: 0x100017DF0, symSize: 0x20 }
  - { offsetInCU: 0x2E045, offset: 0x2E045, size: 0x8, addend: 0x0, symName: __ZNKSt3__117__compressed_pairIPNS_6vectorI4WurdNS_9allocatorIS2_EEEENS3_IS5_EEE5firstB8ue170006Ev, symObjAddr: 0x16AC0, symBinAddr: 0x100017E10, symSize: 0x20 }
  - { offsetInCU: 0x2E06B, offset: 0x2E06B, size: 0x8, addend: 0x0, symName: __ZNKSt3__122__compressed_pair_elemIPNS_6vectorI4WurdNS_9allocatorIS2_EEEELi0ELb0EE5__getB8ue170006Ev, symObjAddr: 0x16AE0, symBinAddr: 0x100017E30, symSize: 0x10 }
  - { offsetInCU: 0x2E0AA, offset: 0x2E0AA, size: 0x8, addend: 0x0, symName: __ZNSt3__16vectorINS0_I4WurdNS_9allocatorIS1_EEEENS2_IS4_EEE21_ConstructTransactionC1B8ue170006ERS6_m, symObjAddr: 0x16AF0, symBinAddr: 0x100017E40, symSize: 0x30 }
  - { offsetInCU: 0x2E0F2, offset: 0x2E0F2, size: 0x8, addend: 0x0, symName: __ZNSt3__116allocator_traitsINS_9allocatorINS_6vectorI4WurdNS1_IS3_EEEEEEE9constructB8ue170006IS5_JEvEEvRS6_PT_DpOT0_, symObjAddr: 0x16B20, symBinAddr: 0x100017E70, symSize: 0x30 }
  - { offsetInCU: 0x2E134, offset: 0x2E134, size: 0x8, addend: 0x0, symName: __ZNSt3__16vectorINS0_I4WurdNS_9allocatorIS1_EEEENS2_IS4_EEE21_ConstructTransactionD1B8ue170006Ev, symObjAddr: 0x16B50, symBinAddr: 0x100017EA0, symSize: 0x20 }
  - { offsetInCU: 0x2E15E, offset: 0x2E15E, size: 0x8, addend: 0x0, symName: __ZNSt3__16vectorINS0_I4WurdNS_9allocatorIS1_EEEENS2_IS4_EEE21_ConstructTransactionC2B8ue170006ERS6_m, symObjAddr: 0x16B70, symBinAddr: 0x100017EC0, symSize: 0x40 }
  - { offsetInCU: 0x2E1A6, offset: 0x2E1A6, size: 0x8, addend: 0x0, symName: __ZNSt3__19allocatorINS_6vectorI4WurdNS0_IS2_EEEEE9constructB8ue170006IS4_JEEEvPT_DpOT0_, symObjAddr: 0x16BB0, symBinAddr: 0x100017F00, symSize: 0x20 }
  - { offsetInCU: 0x2E1E8, offset: 0x2E1E8, size: 0x8, addend: 0x0, symName: __ZNSt3__16vectorINS0_I4WurdNS_9allocatorIS1_EEEENS2_IS4_EEE21_ConstructTransactionD2B8ue170006Ev, symObjAddr: 0x16BD0, symBinAddr: 0x100017F20, symSize: 0x20 }
  - { offsetInCU: 0x2E212, offset: 0x2E212, size: 0x8, addend: 0x0, symName: __ZNSt3__128__exception_guard_exceptionsINS_6vectorINS1_I4WurdNS_9allocatorIS2_EEEENS3_IS5_EEE16__destroy_vectorEED2B8ue170006Ev, symObjAddr: 0x16BF0, symBinAddr: 0x100017F40, symSize: 0x30 }
  - { offsetInCU: 0x2E23C, offset: 0x2E23C, size: 0x8, addend: 0x0, symName: __ZNSt3__16vectorINS0_I4WurdNS_9allocatorIS1_EEEENS2_IS4_EEE16__destroy_vectorclB8ue170006Ev, symObjAddr: 0x16C20, symBinAddr: 0x100017F70, symSize: 0x80 }
  - { offsetInCU: 0x2E262, offset: 0x2E262, size: 0x8, addend: 0x0, symName: __ZNSt3__16vectorINS0_I4WurdNS_9allocatorIS1_EEEENS2_IS4_EEE7__clearB8ue170006Ev, symObjAddr: 0x16CA0, symBinAddr: 0x100017FF0, symSize: 0x20 }
  - { offsetInCU: 0x2E288, offset: 0x2E288, size: 0x8, addend: 0x0, symName: __ZNKSt3__16vectorINS0_I4WurdNS_9allocatorIS1_EEEENS2_IS4_EEE17__annotate_deleteB8ue170006Ev, symObjAddr: 0x16CC0, symBinAddr: 0x100018010, symSize: 0xB0 }
  - { offsetInCU: 0x2E2AE, offset: 0x2E2AE, size: 0x8, addend: 0x0, symName: __ZNSt3__116allocator_traitsINS_9allocatorINS_6vectorI4WurdNS1_IS3_EEEEEEE10deallocateB8ue170006ERS6_PS5_m, symObjAddr: 0x16D70, symBinAddr: 0x1000180C0, symSize: 0x30 }
  - { offsetInCU: 0x2E2F0, offset: 0x2E2F0, size: 0x8, addend: 0x0, symName: __ZNSt3__16vectorINS0_I4WurdNS_9allocatorIS1_EEEENS2_IS4_EEE22__base_destruct_at_endB8ue170006EPS4_, symObjAddr: 0x16DA0, symBinAddr: 0x1000180F0, symSize: 0x90 }
  - { offsetInCU: 0x2E334, offset: 0x2E334, size: 0x8, addend: 0x0, symName: __ZNSt3__116allocator_traitsINS_9allocatorINS_6vectorI4WurdNS1_IS3_EEEEEEE7destroyB8ue170006IS5_vEEvRS6_PT_, symObjAddr: 0x16E30, symBinAddr: 0x100018180, symSize: 0x30 }
  - { offsetInCU: 0x2E371, offset: 0x2E371, size: 0x8, addend: 0x0, symName: __ZNSt3__19allocatorINS_6vectorI4WurdNS0_IS2_EEEEE7destroyB8ue170006EPS4_, symObjAddr: 0x16E60, symBinAddr: 0x1000181B0, symSize: 0x20 }
  - { offsetInCU: 0x2E3A5, offset: 0x2E3A5, size: 0x8, addend: 0x0, symName: __ZNSt3__19allocatorINS_6vectorI4WurdNS0_IS2_EEEEE10deallocateB8ue170006EPS4_m, symObjAddr: 0x16E80, symBinAddr: 0x1000181D0, symSize: 0x80 }
  - { offsetInCU: 0x2E3E7, offset: 0x2E3E7, size: 0x8, addend: 0x0, symName: __ZNSt3__16vectorINS0_I4WurdNS_9allocatorIS1_EEEENS2_IS4_EEED2B8ue170006Ev, symObjAddr: 0x16F00, symBinAddr: 0x100018250, symSize: 0x30 }
  - { offsetInCU: 0x2E411, offset: 0x2E411, size: 0x8, addend: 0x0, symName: __ZNSt3__16vectorI4WurdNS_9allocatorIS1_EEEC2ERKS4_, symObjAddr: 0x16F30, symBinAddr: 0x100018280, symSize: 0xA0 }
  - { offsetInCU: 0x2E44C, offset: 0x2E44C, size: 0x8, addend: 0x0, symName: __ZNSt3__116allocator_traitsINS_9allocatorI4WurdEEE37select_on_container_copy_constructionB8ue170006IS3_vvEES3_RKS3_, symObjAddr: 0x16FD0, symBinAddr: 0x100018320, symSize: 0x10 }
  - { offsetInCU: 0x2E480, offset: 0x2E480, size: 0x8, addend: 0x0, symName: __ZNSt3__117__compressed_pairIP4WurdNS_9allocatorIS1_EEEC1B8ue170006IDnS4_EEOT_OT0_, symObjAddr: 0x16FE0, symBinAddr: 0x100018330, symSize: 0x30 }
  - { offsetInCU: 0x2E4D8, offset: 0x2E4D8, size: 0x8, addend: 0x0, symName: __ZNSt3__16vectorI4WurdNS_9allocatorIS1_EEE16__init_with_sizeB8ue170006IPS1_S6_EEvT_T0_m, symObjAddr: 0x17010, symBinAddr: 0x100018360, symSize: 0xC0 }
  - { offsetInCU: 0x2E54C, offset: 0x2E54C, size: 0x8, addend: 0x0, symName: __ZNSt3__117__compressed_pairIP4WurdNS_9allocatorIS1_EEEC2B8ue170006IDnS4_EEOT_OT0_, symObjAddr: 0x170D0, symBinAddr: 0x100018420, symSize: 0x40 }
  - { offsetInCU: 0x2E5A4, offset: 0x2E5A4, size: 0x8, addend: 0x0, symName: __ZNSt3__122__compressed_pair_elemINS_9allocatorI4WurdEELi1ELb1EEC2B8ue170006IS3_vEEOT_, symObjAddr: 0x17110, symBinAddr: 0x100018460, symSize: 0x10 }
  - { offsetInCU: 0x2E5E6, offset: 0x2E5E6, size: 0x8, addend: 0x0, symName: __ZNSt3__16vectorI4WurdNS_9allocatorIS1_EEE11__vallocateB8ue170006Em, symObjAddr: 0x17160, symBinAddr: 0x1000184B0, symSize: 0xA0 }
  - { offsetInCU: 0x2E62A, offset: 0x2E62A, size: 0x8, addend: 0x0, symName: __ZNSt3__16vectorI4WurdNS_9allocatorIS1_EEE18__construct_at_endIPS1_S6_EEvT_T0_m, symObjAddr: 0x17200, symBinAddr: 0x100018550, symSize: 0xA0 }
  - { offsetInCU: 0x2E6A0, offset: 0x2E6A0, size: 0x8, addend: 0x0, symName: __ZNSt3__128__exception_guard_exceptionsINS_6vectorI4WurdNS_9allocatorIS2_EEE16__destroy_vectorEE10__completeB8ue170006Ev, symObjAddr: 0x172A0, symBinAddr: 0x1000185F0, symSize: 0x20 }
  - { offsetInCU: 0x2E6C6, offset: 0x2E6C6, size: 0x8, addend: 0x0, symName: __ZNSt3__128__exception_guard_exceptionsINS_6vectorI4WurdNS_9allocatorIS2_EEE16__destroy_vectorEED1B8ue170006Ev, symObjAddr: 0x172C0, symBinAddr: 0x100018610, symSize: 0x20 }
  - { offsetInCU: 0x2E6F0, offset: 0x2E6F0, size: 0x8, addend: 0x0, symName: __ZNSt3__128__exception_guard_exceptionsINS_6vectorI4WurdNS_9allocatorIS2_EEE16__destroy_vectorEEC1B8ue170006ES6_, symObjAddr: 0x172E0, symBinAddr: 0x100018630, symSize: 0x30 }
  - { offsetInCU: 0x2E728, offset: 0x2E728, size: 0x8, addend: 0x0, symName: __ZNSt3__128__exception_guard_exceptionsINS_6vectorI4WurdNS_9allocatorIS2_EEE16__destroy_vectorEEC2B8ue170006ES6_, symObjAddr: 0x17310, symBinAddr: 0x100018660, symSize: 0x20 }
  - { offsetInCU: 0x2E779, offset: 0x2E779, size: 0x8, addend: 0x0, symName: __ZNSt3__14pairIP4WurdS2_EC1B8ue170006ERKS2_S5_, symObjAddr: 0x175B0, symBinAddr: 0x100018900, symSize: 0x30 }
  - { offsetInCU: 0x2E7BF, offset: 0x2E7BF, size: 0x8, addend: 0x0, symName: __ZNSt3__14pairIP4WurdS2_EC2B8ue170006ERKS2_S5_, symObjAddr: 0x175E0, symBinAddr: 0x100018930, symSize: 0x30 }
  - { offsetInCU: 0x2E805, offset: 0x2E805, size: 0x8, addend: 0x0, symName: __ZNSt3__129_AllocatorDestroyRangeReverseINS_9allocatorI4WurdEEPS2_EC1B8ue170006ERS3_RS4_S7_, symObjAddr: 0x17670, symBinAddr: 0x1000189C0, symSize: 0x40 }
  - { offsetInCU: 0x2E85C, offset: 0x2E85C, size: 0x8, addend: 0x0, symName: __ZNSt3__116allocator_traitsINS_9allocatorI4WurdEEE9constructB8ue170006IS2_JRS2_EvEEvRS3_PT_DpOT0_, symObjAddr: 0x176B0, symBinAddr: 0x100018A00, symSize: 0x30 }
  - { offsetInCU: 0x2E8B3, offset: 0x2E8B3, size: 0x8, addend: 0x0, symName: __ZNSt3__128__exception_guard_exceptionsINS_29_AllocatorDestroyRangeReverseINS_9allocatorI4WurdEEPS3_EEE10__completeB8ue170006Ev, symObjAddr: 0x176E0, symBinAddr: 0x100018A30, symSize: 0x20 }
  - { offsetInCU: 0x2E8D9, offset: 0x2E8D9, size: 0x8, addend: 0x0, symName: __ZNSt3__128__exception_guard_exceptionsINS_29_AllocatorDestroyRangeReverseINS_9allocatorI4WurdEEPS3_EEED1B8ue170006Ev, symObjAddr: 0x17700, symBinAddr: 0x100018A50, symSize: 0x20 }
  - { offsetInCU: 0x2E903, offset: 0x2E903, size: 0x8, addend: 0x0, symName: __ZNSt3__128__exception_guard_exceptionsINS_29_AllocatorDestroyRangeReverseINS_9allocatorI4WurdEEPS3_EEEC1B8ue170006ES6_, symObjAddr: 0x17720, symBinAddr: 0x100018A70, symSize: 0x40 }
  - { offsetInCU: 0x2E93B, offset: 0x2E93B, size: 0x8, addend: 0x0, symName: __ZNSt3__128__exception_guard_exceptionsINS_29_AllocatorDestroyRangeReverseINS_9allocatorI4WurdEEPS3_EEEC2B8ue170006ES6_, symObjAddr: 0x17760, symBinAddr: 0x100018AB0, symSize: 0x30 }
  - { offsetInCU: 0x2E973, offset: 0x2E973, size: 0x8, addend: 0x0, symName: __ZNSt3__129_AllocatorDestroyRangeReverseINS_9allocatorI4WurdEEPS2_EC2B8ue170006ERS3_RS4_S7_, symObjAddr: 0x17790, symBinAddr: 0x100018AE0, symSize: 0x40 }
  - { offsetInCU: 0x2E9CA, offset: 0x2E9CA, size: 0x8, addend: 0x0, symName: __ZNSt3__19allocatorI4WurdE9constructB8ue170006IS1_JRS1_EEEvPT_DpOT0_, symObjAddr: 0x177D0, symBinAddr: 0x100018B20, symSize: 0x30 }
  - { offsetInCU: 0x2EA20, offset: 0x2EA20, size: 0x8, addend: 0x0, symName: __ZNSt3__128__exception_guard_exceptionsINS_29_AllocatorDestroyRangeReverseINS_9allocatorI4WurdEEPS3_EEED2B8ue170006Ev, symObjAddr: 0x17800, symBinAddr: 0x100018B50, symSize: 0x30 }
  - { offsetInCU: 0x2EA4A, offset: 0x2EA4A, size: 0x8, addend: 0x0, symName: __ZNKSt3__129_AllocatorDestroyRangeReverseINS_9allocatorI4WurdEEPS2_EclB8ue170006Ev, symObjAddr: 0x17830, symBinAddr: 0x100018B80, symSize: 0x60 }
  - { offsetInCU: 0x2EA70, offset: 0x2EA70, size: 0x8, addend: 0x0, symName: __ZNSt3__118__unwrap_iter_implIP4WurdLb1EE8__unwrapB8ue170006ES2_, symObjAddr: 0x17900, symBinAddr: 0x100018C50, symSize: 0x20 }
  - { offsetInCU: 0x2EA93, offset: 0x2EA93, size: 0x8, addend: 0x0, symName: __ZNSt3__118__unwrap_iter_implIP4WurdLb1EE8__rewrapB8ue170006ES2_S2_, symObjAddr: 0x17920, symBinAddr: 0x100018C70, symSize: 0x50 }
  - { offsetInCU: 0x2EAC4, offset: 0x2EAC4, size: 0x8, addend: 0x0, symName: __ZNSt3__128__exception_guard_exceptionsINS_6vectorI4WurdNS_9allocatorIS2_EEE16__destroy_vectorEED2B8ue170006Ev, symObjAddr: 0x17970, symBinAddr: 0x100018CC0, symSize: 0x30 }
  - { offsetInCU: 0x2EAEE, offset: 0x2EAEE, size: 0x8, addend: 0x0, symName: __ZNSt3__16vectorIdNS_9allocatorIdEEEC2ERKS3_, symObjAddr: 0x179A0, symBinAddr: 0x100018CF0, symSize: 0xA0 }
  - { offsetInCU: 0x2EB29, offset: 0x2EB29, size: 0x8, addend: 0x0, symName: __ZNSt3__116allocator_traitsINS_9allocatorIdEEE37select_on_container_copy_constructionB8ue170006IS2_vvEES2_RKS2_, symObjAddr: 0x17A40, symBinAddr: 0x100018D90, symSize: 0x10 }
  - { offsetInCU: 0x2EB5D, offset: 0x2EB5D, size: 0x8, addend: 0x0, symName: __ZNSt3__117__compressed_pairIPdNS_9allocatorIdEEEC1B8ue170006IDnS3_EEOT_OT0_, symObjAddr: 0x17A50, symBinAddr: 0x100018DA0, symSize: 0x30 }
  - { offsetInCU: 0x2EBB5, offset: 0x2EBB5, size: 0x8, addend: 0x0, symName: __ZNSt3__16vectorIdNS_9allocatorIdEEE16__init_with_sizeB8ue170006IPdS5_EEvT_T0_m, symObjAddr: 0x17A80, symBinAddr: 0x100018DD0, symSize: 0xC0 }
  - { offsetInCU: 0x2EC29, offset: 0x2EC29, size: 0x8, addend: 0x0, symName: __ZNSt3__117__compressed_pairIPdNS_9allocatorIdEEEC2B8ue170006IDnS3_EEOT_OT0_, symObjAddr: 0x17B40, symBinAddr: 0x100018E90, symSize: 0x40 }
  - { offsetInCU: 0x2EC81, offset: 0x2EC81, size: 0x8, addend: 0x0, symName: __ZNSt3__122__compressed_pair_elemINS_9allocatorIdEELi1ELb1EEC2B8ue170006IS2_vEEOT_, symObjAddr: 0x17B80, symBinAddr: 0x100018ED0, symSize: 0x10 }
  - { offsetInCU: 0x2ECC3, offset: 0x2ECC3, size: 0x8, addend: 0x0, symName: __ZNSt3__16vectorIdNS_9allocatorIdEEE11__vallocateB8ue170006Em, symObjAddr: 0x17BD0, symBinAddr: 0x100018F20, symSize: 0xA0 }
  - { offsetInCU: 0x2ED07, offset: 0x2ED07, size: 0x8, addend: 0x0, symName: __ZNSt3__16vectorIdNS_9allocatorIdEEE18__construct_at_endIPdS5_EEvT_T0_m, symObjAddr: 0x17C70, symBinAddr: 0x100018FC0, symSize: 0xA0 }
  - { offsetInCU: 0x2ED7D, offset: 0x2ED7D, size: 0x8, addend: 0x0, symName: __ZNSt3__128__exception_guard_exceptionsINS_6vectorIdNS_9allocatorIdEEE16__destroy_vectorEE10__completeB8ue170006Ev, symObjAddr: 0x17D10, symBinAddr: 0x100019060, symSize: 0x20 }
  - { offsetInCU: 0x2EDA3, offset: 0x2EDA3, size: 0x8, addend: 0x0, symName: __ZNSt3__128__exception_guard_exceptionsINS_6vectorIdNS_9allocatorIdEEE16__destroy_vectorEED1B8ue170006Ev, symObjAddr: 0x17D30, symBinAddr: 0x100019080, symSize: 0x20 }
  - { offsetInCU: 0x2EDCD, offset: 0x2EDCD, size: 0x8, addend: 0x0, symName: __ZNSt3__128__exception_guard_exceptionsINS_6vectorIdNS_9allocatorIdEEE16__destroy_vectorEEC1B8ue170006ES5_, symObjAddr: 0x17D50, symBinAddr: 0x1000190A0, symSize: 0x30 }
  - { offsetInCU: 0x2EE05, offset: 0x2EE05, size: 0x8, addend: 0x0, symName: __ZNSt3__128__exception_guard_exceptionsINS_6vectorIdNS_9allocatorIdEEE16__destroy_vectorEEC2B8ue170006ES5_, symObjAddr: 0x17D80, symBinAddr: 0x1000190D0, symSize: 0x20 }
  - { offsetInCU: 0x2EE56, offset: 0x2EE56, size: 0x8, addend: 0x0, symName: __ZNSt3__14pairIPdS1_EC1B8ue170006ERKS1_S4_, symObjAddr: 0x18020, symBinAddr: 0x100019370, symSize: 0x30 }
  - { offsetInCU: 0x2EE9C, offset: 0x2EE9C, size: 0x8, addend: 0x0, symName: __ZNSt3__14pairIPdS1_EC2B8ue170006ERKS1_S4_, symObjAddr: 0x18050, symBinAddr: 0x1000193A0, symSize: 0x30 }
  - { offsetInCU: 0x2EEE2, offset: 0x2EEE2, size: 0x8, addend: 0x0, symName: __ZNSt3__129_AllocatorDestroyRangeReverseINS_9allocatorIdEEPdEC1B8ue170006ERS2_RS3_S6_, symObjAddr: 0x180E0, symBinAddr: 0x100019430, symSize: 0x40 }
  - { offsetInCU: 0x2EF39, offset: 0x2EF39, size: 0x8, addend: 0x0, symName: __ZNSt3__116allocator_traitsINS_9allocatorIdEEE9constructB8ue170006IdJRdEvEEvRS2_PT_DpOT0_, symObjAddr: 0x18120, symBinAddr: 0x100019470, symSize: 0x30 }
  - { offsetInCU: 0x2EF90, offset: 0x2EF90, size: 0x8, addend: 0x0, symName: __ZNSt3__128__exception_guard_exceptionsINS_29_AllocatorDestroyRangeReverseINS_9allocatorIdEEPdEEE10__completeB8ue170006Ev, symObjAddr: 0x18150, symBinAddr: 0x1000194A0, symSize: 0x20 }
  - { offsetInCU: 0x2EFB6, offset: 0x2EFB6, size: 0x8, addend: 0x0, symName: __ZNSt3__128__exception_guard_exceptionsINS_29_AllocatorDestroyRangeReverseINS_9allocatorIdEEPdEEED1B8ue170006Ev, symObjAddr: 0x18170, symBinAddr: 0x1000194C0, symSize: 0x20 }
  - { offsetInCU: 0x2EFE0, offset: 0x2EFE0, size: 0x8, addend: 0x0, symName: __ZNSt3__128__exception_guard_exceptionsINS_29_AllocatorDestroyRangeReverseINS_9allocatorIdEEPdEEEC1B8ue170006ES5_, symObjAddr: 0x18190, symBinAddr: 0x1000194E0, symSize: 0x40 }
  - { offsetInCU: 0x2F018, offset: 0x2F018, size: 0x8, addend: 0x0, symName: __ZNSt3__128__exception_guard_exceptionsINS_29_AllocatorDestroyRangeReverseINS_9allocatorIdEEPdEEEC2B8ue170006ES5_, symObjAddr: 0x181D0, symBinAddr: 0x100019520, symSize: 0x30 }
  - { offsetInCU: 0x2F050, offset: 0x2F050, size: 0x8, addend: 0x0, symName: __ZNSt3__129_AllocatorDestroyRangeReverseINS_9allocatorIdEEPdEC2B8ue170006ERS2_RS3_S6_, symObjAddr: 0x18200, symBinAddr: 0x100019550, symSize: 0x40 }
  - { offsetInCU: 0x2F0A7, offset: 0x2F0A7, size: 0x8, addend: 0x0, symName: __ZNSt3__19allocatorIdE9constructB8ue170006IdJRdEEEvPT_DpOT0_, symObjAddr: 0x18240, symBinAddr: 0x100019590, symSize: 0x30 }
  - { offsetInCU: 0x2F0FD, offset: 0x2F0FD, size: 0x8, addend: 0x0, symName: __ZNSt3__128__exception_guard_exceptionsINS_29_AllocatorDestroyRangeReverseINS_9allocatorIdEEPdEEED2B8ue170006Ev, symObjAddr: 0x18270, symBinAddr: 0x1000195C0, symSize: 0x30 }
  - { offsetInCU: 0x2F127, offset: 0x2F127, size: 0x8, addend: 0x0, symName: __ZNKSt3__129_AllocatorDestroyRangeReverseINS_9allocatorIdEEPdEclB8ue170006Ev, symObjAddr: 0x182A0, symBinAddr: 0x1000195F0, symSize: 0x60 }
  - { offsetInCU: 0x2F14D, offset: 0x2F14D, size: 0x8, addend: 0x0, symName: __ZNSt3__118__unwrap_iter_implIPdLb1EE8__unwrapB8ue170006ES1_, symObjAddr: 0x18370, symBinAddr: 0x1000196C0, symSize: 0x20 }
  - { offsetInCU: 0x2F170, offset: 0x2F170, size: 0x8, addend: 0x0, symName: __ZNSt3__118__unwrap_iter_implIPdLb1EE8__rewrapB8ue170006ES1_S1_, symObjAddr: 0x18390, symBinAddr: 0x1000196E0, symSize: 0x50 }
  - { offsetInCU: 0x2F1A1, offset: 0x2F1A1, size: 0x8, addend: 0x0, symName: __ZNSt3__128__exception_guard_exceptionsINS_6vectorIdNS_9allocatorIdEEE16__destroy_vectorEED2B8ue170006Ev, symObjAddr: 0x183E0, symBinAddr: 0x100019730, symSize: 0x30 }
  - { offsetInCU: 0x2F1CB, offset: 0x2F1CB, size: 0x8, addend: 0x0, symName: __ZNSt3__16vectorINS0_I4WurdNS_9allocatorIS1_EEEENS2_IS4_EEEC2ERKS6_, symObjAddr: 0x18410, symBinAddr: 0x100019760, symSize: 0xA0 }
  - { offsetInCU: 0x2F206, offset: 0x2F206, size: 0x8, addend: 0x0, symName: __ZNSt3__116allocator_traitsINS_9allocatorINS_6vectorI4WurdNS1_IS3_EEEEEEE37select_on_container_copy_constructionB8ue170006IS6_vvEES6_RKS6_, symObjAddr: 0x184B0, symBinAddr: 0x100019800, symSize: 0x10 }
  - { offsetInCU: 0x2F23A, offset: 0x2F23A, size: 0x8, addend: 0x0, symName: __ZNSt3__117__compressed_pairIPNS_6vectorI4WurdNS_9allocatorIS2_EEEENS3_IS5_EEEC1B8ue170006IDnS7_EEOT_OT0_, symObjAddr: 0x184C0, symBinAddr: 0x100019810, symSize: 0x30 }
  - { offsetInCU: 0x2F292, offset: 0x2F292, size: 0x8, addend: 0x0, symName: __ZNSt3__16vectorINS0_I4WurdNS_9allocatorIS1_EEEENS2_IS4_EEE16__init_with_sizeB8ue170006IPS4_S8_EEvT_T0_m, symObjAddr: 0x184F0, symBinAddr: 0x100019840, symSize: 0xC0 }
  - { offsetInCU: 0x2F306, offset: 0x2F306, size: 0x8, addend: 0x0, symName: __ZNSt3__117__compressed_pairIPNS_6vectorI4WurdNS_9allocatorIS2_EEEENS3_IS5_EEEC2B8ue170006IDnS7_EEOT_OT0_, symObjAddr: 0x185B0, symBinAddr: 0x100019900, symSize: 0x40 }
  - { offsetInCU: 0x2F35E, offset: 0x2F35E, size: 0x8, addend: 0x0, symName: __ZNSt3__122__compressed_pair_elemINS_9allocatorINS_6vectorI4WurdNS1_IS3_EEEEEELi1ELb1EEC2B8ue170006IS6_vEEOT_, symObjAddr: 0x185F0, symBinAddr: 0x100019940, symSize: 0x10 }
  - { offsetInCU: 0x2F3A0, offset: 0x2F3A0, size: 0x8, addend: 0x0, symName: __ZNSt3__16vectorINS0_I4WurdNS_9allocatorIS1_EEEENS2_IS4_EEE18__construct_at_endIPS4_S8_EEvT_T0_m, symObjAddr: 0x18600, symBinAddr: 0x100019950, symSize: 0xA0 }
  - { offsetInCU: 0x2F42F, offset: 0x2F42F, size: 0x8, addend: 0x0, symName: __ZNSt3__14pairIPNS_6vectorI4WurdNS_9allocatorIS2_EEEES6_EC1B8ue170006ERKS6_S9_, symObjAddr: 0x18920, symBinAddr: 0x100019C70, symSize: 0x30 }
  - { offsetInCU: 0x2F475, offset: 0x2F475, size: 0x8, addend: 0x0, symName: __ZNSt3__14pairIPNS_6vectorI4WurdNS_9allocatorIS2_EEEES6_EC2B8ue170006ERKS6_S9_, symObjAddr: 0x18950, symBinAddr: 0x100019CA0, symSize: 0x30 }
  - { offsetInCU: 0x2F4BB, offset: 0x2F4BB, size: 0x8, addend: 0x0, symName: __ZNSt3__129_AllocatorDestroyRangeReverseINS_9allocatorINS_6vectorI4WurdNS1_IS3_EEEEEEPS5_EC1B8ue170006ERS6_RS7_SA_, symObjAddr: 0x189E0, symBinAddr: 0x100019D30, symSize: 0x40 }
  - { offsetInCU: 0x2F512, offset: 0x2F512, size: 0x8, addend: 0x0, symName: __ZNSt3__116allocator_traitsINS_9allocatorINS_6vectorI4WurdNS1_IS3_EEEEEEE9constructB8ue170006IS5_JRS5_EvEEvRS6_PT_DpOT0_, symObjAddr: 0x18A20, symBinAddr: 0x100019D70, symSize: 0x30 }
  - { offsetInCU: 0x2F569, offset: 0x2F569, size: 0x8, addend: 0x0, symName: __ZNSt3__128__exception_guard_exceptionsINS_29_AllocatorDestroyRangeReverseINS_9allocatorINS_6vectorI4WurdNS2_IS4_EEEEEEPS6_EEE10__completeB8ue170006Ev, symObjAddr: 0x18A50, symBinAddr: 0x100019DA0, symSize: 0x20 }
  - { offsetInCU: 0x2F58F, offset: 0x2F58F, size: 0x8, addend: 0x0, symName: __ZNSt3__128__exception_guard_exceptionsINS_29_AllocatorDestroyRangeReverseINS_9allocatorINS_6vectorI4WurdNS2_IS4_EEEEEEPS6_EEED1B8ue170006Ev, symObjAddr: 0x18A70, symBinAddr: 0x100019DC0, symSize: 0x20 }
  - { offsetInCU: 0x2F5B9, offset: 0x2F5B9, size: 0x8, addend: 0x0, symName: __ZNSt3__128__exception_guard_exceptionsINS_29_AllocatorDestroyRangeReverseINS_9allocatorINS_6vectorI4WurdNS2_IS4_EEEEEEPS6_EEEC1B8ue170006ES9_, symObjAddr: 0x18A90, symBinAddr: 0x100019DE0, symSize: 0x40 }
  - { offsetInCU: 0x2F5F1, offset: 0x2F5F1, size: 0x8, addend: 0x0, symName: __ZNSt3__128__exception_guard_exceptionsINS_29_AllocatorDestroyRangeReverseINS_9allocatorINS_6vectorI4WurdNS2_IS4_EEEEEEPS6_EEEC2B8ue170006ES9_, symObjAddr: 0x18AD0, symBinAddr: 0x100019E20, symSize: 0x30 }
  - { offsetInCU: 0x2F629, offset: 0x2F629, size: 0x8, addend: 0x0, symName: __ZNSt3__129_AllocatorDestroyRangeReverseINS_9allocatorINS_6vectorI4WurdNS1_IS3_EEEEEEPS5_EC2B8ue170006ERS6_RS7_SA_, symObjAddr: 0x18B00, symBinAddr: 0x100019E50, symSize: 0x40 }
  - { offsetInCU: 0x2F680, offset: 0x2F680, size: 0x8, addend: 0x0, symName: __ZNSt3__19allocatorINS_6vectorI4WurdNS0_IS2_EEEEE9constructB8ue170006IS4_JRS4_EEEvPT_DpOT0_, symObjAddr: 0x18B40, symBinAddr: 0x100019E90, symSize: 0x30 }
  - { offsetInCU: 0x2F6D6, offset: 0x2F6D6, size: 0x8, addend: 0x0, symName: __ZNSt3__128__exception_guard_exceptionsINS_29_AllocatorDestroyRangeReverseINS_9allocatorINS_6vectorI4WurdNS2_IS4_EEEEEEPS6_EEED2B8ue170006Ev, symObjAddr: 0x18B70, symBinAddr: 0x100019EC0, symSize: 0x30 }
  - { offsetInCU: 0x2F700, offset: 0x2F700, size: 0x8, addend: 0x0, symName: __ZNKSt3__129_AllocatorDestroyRangeReverseINS_9allocatorINS_6vectorI4WurdNS1_IS3_EEEEEEPS5_EclB8ue170006Ev, symObjAddr: 0x18BA0, symBinAddr: 0x100019EF0, symSize: 0x60 }
  - { offsetInCU: 0x2F726, offset: 0x2F726, size: 0x8, addend: 0x0, symName: __ZNSt3__116reverse_iteratorIPNS_6vectorI4WurdNS_9allocatorIS2_EEEEEC1B8ue170006ES6_, symObjAddr: 0x18C70, symBinAddr: 0x100019FC0, symSize: 0x30 }
  - { offsetInCU: 0x2F75E, offset: 0x2F75E, size: 0x8, addend: 0x0, symName: __ZNSt3__116reverse_iteratorIPNS_6vectorI4WurdNS_9allocatorIS2_EEEEEppB8ue170006Ev, symObjAddr: 0x18D00, symBinAddr: 0x10001A050, symSize: 0x20 }
  - { offsetInCU: 0x2F784, offset: 0x2F784, size: 0x8, addend: 0x0, symName: __ZNKSt3__116reverse_iteratorIPNS_6vectorI4WurdNS_9allocatorIS2_EEEEE4baseB8ue170006Ev, symObjAddr: 0x18D20, symBinAddr: 0x10001A070, symSize: 0x20 }
  - { offsetInCU: 0x2F7AF, offset: 0x2F7AF, size: 0x8, addend: 0x0, symName: __ZNSt3__119__to_address_helperINS_16reverse_iteratorIPNS_6vectorI4WurdNS_9allocatorIS3_EEEEEEvE6__callB8ue170006ERKS8_, symObjAddr: 0x18D40, symBinAddr: 0x10001A090, symSize: 0x50 }
  - { offsetInCU: 0x2F7D2, offset: 0x2F7D2, size: 0x8, addend: 0x0, symName: __ZNKSt3__116reverse_iteratorIPNS_6vectorI4WurdNS_9allocatorIS2_EEEEEptB8ue170006Ev, symObjAddr: 0x18D90, symBinAddr: 0x10001A0E0, symSize: 0x20 }
  - { offsetInCU: 0x2F7F8, offset: 0x2F7F8, size: 0x8, addend: 0x0, symName: __ZNKSt3__116reverse_iteratorIPNS_6vectorI4WurdNS_9allocatorIS2_EEEEEdeB8ue170006Ev, symObjAddr: 0x18DB0, symBinAddr: 0x10001A100, symSize: 0x30 }
  - { offsetInCU: 0x2F82C, offset: 0x2F82C, size: 0x8, addend: 0x0, symName: __ZNSt3__116reverse_iteratorIPNS_6vectorI4WurdNS_9allocatorIS2_EEEEEC2B8ue170006ES6_, symObjAddr: 0x18DE0, symBinAddr: 0x10001A130, symSize: 0x30 }
  - { offsetInCU: 0x2F864, offset: 0x2F864, size: 0x8, addend: 0x0, symName: __ZNSt3__118__unwrap_iter_implIPNS_6vectorI4WurdNS_9allocatorIS2_EEEELb1EE8__unwrapB8ue170006ES6_, symObjAddr: 0x18E10, symBinAddr: 0x10001A160, symSize: 0x20 }
  - { offsetInCU: 0x2F887, offset: 0x2F887, size: 0x8, addend: 0x0, symName: __ZNSt3__118__unwrap_iter_implIPNS_6vectorI4WurdNS_9allocatorIS2_EEEELb1EE8__rewrapB8ue170006ES6_S6_, symObjAddr: 0x18E30, symBinAddr: 0x10001A180, symSize: 0x51 }
...
